(lp0
(icommon
Rawdatastructure
p1
(dp2
S'initial_mil'
p3
F0.0
sS'vss'
p4
F0.0
sS'mil_dist'
p5
F202.0
sS'clr_dist'
p6
F3668.0
sS'load_pct'
p7
F10.58824
sS'maf'
p8
F349.52
sS'app_r'
p9
F53.33333
sS'rpm'
p10
I1347
sba(icommon
Rawdatastructure
p11
(dp12
g3
F0.0
sg4
F0.0
sg5
F202.0
sg6
F3668.0
sg7
F50.98039
sg8
F349.52
sg9
F53.33333
sg10
I1202
sba(icommon
Rawdatastructure
p13
(dp14
g3
F0.0
sg4
F0.0
sg5
F202.0
sg6
F3668.0
sg7
F47.84314
sg8
F349.52
sg9
F53.33333
sg10
I1209
sba(icommon
Rawdatastructure
p15
(dp16
g3
F0.0
sg4
F0.0
sg5
F202.0
sg6
F3668.0
sg7
F34.11765
sg8
F349.52
sg9
F53.33333
sg10
I743
sba(icommon
Rawdatastructure
p17
(dp18
g3
F0.0
sg4
F0.0
sg5
F202.0
sg6
F3668.0
sg7
F29.01961
sg8
F349.52
sg9
F53.33333
sg10
I676
sba(icommon
Rawdatastructure
p19
(dp20
g3
F0.0
sg4
F2.0
sg5
F202.0
sg6
F3668.0
sg7
F20.78431
sg8
F349.52
sg9
F53.33333
sg10
I884
sba(icommon
Rawdatastructure
p21
(dp22
g3
F0.0
sg4
F2.0
sg5
F202.0
sg6
F3668.0
sg7
F24.31373
sg8
F349.52
sg9
F53.33333
sg10
I745
sba(icommon
Rawdatastructure
p23
(dp24
g3
F0.0
sg4
F9.0
sg5
F202.0
sg6
F3668.0
sg7
F20.78431
sg8
F349.52
sg9
F53.33333
sg10
I918
sba(icommon
Rawdatastructure
p25
(dp26
g3
F0.0
sg4
F10.0
sg5
F202.0
sg6
F3668.0
sg7
F28.62745
sg8
F349.52
sg9
F53.33333
sg10
I789
sba(icommon
Rawdatastructure
p27
(dp28
g3
F0.0
sg4
F8.0
sg5
F202.0
sg6
F3668.0
sg7
F27.84314
sg8
F349.52
sg9
F53.33333
sg10
I706
sba(icommon
Rawdatastructure
p29
(dp30
g3
F0.0
sg4
F5.0
sg5
F202.0
sg6
F3668.0
sg7
F37.64706
sg8
F349.52
sg9
F53.33333
sg10
I891
sba(icommon
Rawdatastructure
p31
(dp32
g3
F0.0
sg4
F26.0
sg5
F202.0
sg6
F3668.0
sg7
F21.96078
sg8
F349.52
sg9
F53.33333
sg10
I1201
sba(icommon
Rawdatastructure
p33
(dp34
g3
F0.0
sg4
F0.0
sg5
F202.0
sg6
F3668.0
sg7
F19.21569
sg8
F349.52
sg9
F53.33333
sg10
I705
sba(icommon
Rawdatastructure
p35
(dp36
g3
F0.0
sg4
F0.0
sg5
F202.0
sg6
F3668.0
sg7
F20.78431
sg8
F349.52
sg9
F53.33333
sg10
I692
sba(icommon
Rawdatastructure
p37
(dp38
g3
F0.0
sg4
F0.0
sg5
F202.0
sg6
F3668.0
sg7
F20.39216
sg8
F349.52
sg9
F53.33333
sg10
I689
sba(icommon
Rawdatastructure
p39
(dp40
g3
F0.0
sg4
F22.0
sg5
F202.0
sg6
F3668.0
sg7
F13.33333
sg8
F349.52
sg9
F53.33333
sg10
I1454
sba(icommon
Rawdatastructure
p41
(dp42
g3
F0.0
sg4
F37.0
sg5
F202.0
sg6
F3668.0
sg7
F11.37255
sg8
F349.52
sg9
F53.33333
sg10
I1270
sba(icommon
Rawdatastructure
p43
(dp44
g3
F0.0
sg4
F28.0
sg5
F202.0
sg6
F3668.0
sg7
F18.03922
sg8
F349.52
sg9
F53.33333
sg10
I755
sba(icommon
Rawdatastructure
p45
(dp46
g3
F0.0
sg4
F2.0
sg5
F202.0
sg6
F3668.0
sg7
F18.43137
sg8
F349.52
sg9
F53.33333
sg10
I732
sba(icommon
Rawdatastructure
p47
(dp48
g3
F0.0
sg4
F0.0
sg5
F202.0
sg6
F3668.0
sg7
F18.82353
sg8
F349.52
sg9
F53.33333
sg10
I695
sba(icommon
Rawdatastructure
p49
(dp50
g3
F0.0
sg4
F17.0
sg5
F202.0
sg6
F3668.0
sg7
F32.54902
sg8
F349.52
sg9
F53.33333
sg10
I1151
sba(icommon
Rawdatastructure
p51
(dp52
g3
F0.0
sg4
F16.0
sg5
F202.0
sg6
F3669.0
sg7
F15.29412
sg8
F349.52
sg9
F53.33333
sg10
I765
sba(icommon
Rawdatastructure
p53
(dp54
g3
F0.0
sg4
F22.0
sg5
F202.0
sg6
F3669.0
sg7
F15.29412
sg8
F349.52
sg9
F53.33333
sg10
I757
sba(icommon
Rawdatastructure
p55
(dp56
g3
F0.0
sg4
F35.0
sg5
F202.0
sg6
F3669.0
sg7
F38.43137
sg8
F349.52
sg9
F53.33333
sg10
I1558
sba(icommon
Rawdatastructure
p57
(dp58
g3
F0.0
sg4
F40.0
sg5
F202.0
sg6
F3669.0
sg7
F14.90196
sg8
F349.52
sg9
F53.33333
sg10
I1347
sba(icommon
Rawdatastructure
p59
(dp60
g3
F0.0
sg4
F37.0
sg5
F202.0
sg6
F3669.0
sg7
F14.11765
sg8
F349.52
sg9
F53.33333
sg10
I763
sba(icommon
Rawdatastructure
p61
(dp62
g3
F0.0
sg4
F33.0
sg5
F202.0
sg6
F3669.0
sg7
F10.58824
sg8
F349.52
sg9
F53.33333
sg10
I1095
sba(icommon
Rawdatastructure
p63
(dp64
g3
F0.0
sg4
F36.0
sg5
F202.0
sg6
F3669.0
sg7
F21.56863
sg8
F349.52
sg9
F53.33333
sg10
I1168
sba(icommon
Rawdatastructure
p65
(dp66
g3
F0.0
sg4
F29.0
sg5
F202.0
sg6
F3669.0
sg7
F15.68627
sg8
F349.52
sg9
F53.33333
sg10
I735
sba(icommon
Rawdatastructure
p67
(dp68
g3
F0.0
sg4
F5.0
sg5
F202.0
sg6
F3669.0
sg7
F16.86275
sg8
F349.52
sg9
F53.33333
sg10
I714
sba(icommon
Rawdatastructure
p69
(dp70
g3
F0.0
sg4
F12.0
sg5
F202.0
sg6
F3669.0
sg7
F20.0
sg8
F349.52
sg9
F53.33333
sg10
I1289
sba(icommon
Rawdatastructure
p71
(dp72
g3
F0.0
sg4
F25.0
sg5
F202.0
sg6
F3669.0
sg7
F37.64706
sg8
F349.52
sg9
F53.33333
sg10
I1426
sba(icommon
Rawdatastructure
p73
(dp74
g3
F0.0
sg4
F38.0
sg5
F202.0
sg6
F3669.0
sg7
F28.23529
sg8
F349.52
sg9
F53.33333
sg10
I1288
sba(icommon
Rawdatastructure
p75
(dp76
g3
F0.0
sg4
F38.0
sg5
F202.0
sg6
F3669.0
sg7
F7.05882
sg8
F349.52
sg9
F53.33333
sg10
I1253
sba(icommon
Rawdatastructure
p77
(dp78
g3
F0.0
sg4
F29.0
sg5
F202.0
sg6
F3669.0
sg7
F21.17647
sg8
F349.52
sg9
F53.33333
sg10
I745
sba(icommon
Rawdatastructure
p79
(dp80
g3
F0.0
sg4
F5.0
sg5
F202.0
sg6
F3669.0
sg7
F17.2549
sg8
F349.52
sg9
F53.33333
sg10
I701
sba(icommon
Rawdatastructure
p81
(dp82
g3
F0.0
sg4
F0.0
sg5
F202.0
sg6
F3669.0
sg7
F16.86275
sg8
F349.52
sg9
F53.33333
sg10
I736
sba(icommon
Rawdatastructure
p83
(dp84
g3
F0.0
sg4
F18.0
sg5
F202.0
sg6
F3669.0
sg7
F52.94118
sg8
F349.52
sg9
F53.33333
sg10
I1165
sba(icommon
Rawdatastructure
p85
(dp86
g3
F0.0
sg4
F0.0
sg5
F202.0
sg6
F3669.0
sg7
F16.86275
sg8
F349.52
sg9
F53.33333
sg10
I695
sba(icommon
Rawdatastructure
p87
(dp88
g3
F0.0
sg4
F39.0
sg5
F202.0
sg6
F3669.0
sg7
F68.23529
sg8
F349.52
sg9
F53.33333
sg10
I1325
sba(icommon
Rawdatastructure
p89
(dp90
g3
F0.0
sg4
F29.0
sg5
F202.0
sg6
F3669.0
sg7
F16.07843
sg8
F349.52
sg9
F53.33333
sg10
I747
sba(icommon
Rawdatastructure
p91
(dp92
g3
F0.0
sg4
F37.0
sg5
F202.0
sg6
F3669.0
sg7
F60.78431
sg8
F349.52
sg9
F53.33333
sg10
I1223
sba(icommon
Rawdatastructure
p93
(dp94
g3
F0.0
sg4
F32.0
sg5
F202.0
sg6
F3670.0
sg7
F23.13725
sg8
F349.52
sg9
F53.33333
sg10
I1060
sba(icommon
Rawdatastructure
p95
(dp96
g3
F0.0
sg4
F40.0
sg5
F202.0
sg6
F3670.0
sg7
F36.86275
sg8
F349.52
sg9
F53.33333
sg10
I1319
sba(icommon
Rawdatastructure
p97
(dp98
g3
F0.0
sg4
F31.0
sg5
F202.0
sg6
F3670.0
sg7
F14.90196
sg8
F349.52
sg9
F53.33333
sg10
I746
sba(icommon
Rawdatastructure
p99
(dp100
g3
F0.0
sg4
F5.0
sg5
F202.0
sg6
F3670.0
sg7
F23.52941
sg8
F349.52
sg9
F53.33333
sg10
I716
sba(icommon
Rawdatastructure
p101
(dp102
g3
F0.0
sg4
F0.0
sg5
F202.0
sg6
F3670.0
sg7
F18.43137
sg8
F349.52
sg9
F53.33333
sg10
I755
sba(icommon
Rawdatastructure
p103
(dp104
g3
F0.0
sg4
F0.0
sg5
F202.0
sg6
F3670.0
sg7
F16.47059
sg8
F349.52
sg9
F53.33333
sg10
I745
sba(icommon
Rawdatastructure
p105
(dp106
g3
F0.0
sg4
F0.0
sg5
F202.0
sg6
F3670.0
sg7
F16.47059
sg8
F349.52
sg9
F53.33333
sg10
I753
sba(icommon
Rawdatastructure
p107
(dp108
g3
F0.0
sg4
F0.0
sg5
F202.0
sg6
F3670.0
sg7
F16.47059
sg8
F349.52
sg9
F53.33333
sg10
I755
sba(icommon
Rawdatastructure
p109
(dp110
g3
F0.0
sg4
F0.0
sg5
F202.0
sg6
F3670.0
sg7
F16.47059
sg8
F349.52
sg9
F53.33333
sg10
I744
sba(icommon
Rawdatastructure
p111
(dp112
g3
F0.0
sg4
F0.0
sg5
F202.0
sg6
F3670.0
sg7
F16.07843
sg8
F349.52
sg9
F53.33333
sg10
I745
sba(icommon
Rawdatastructure
p113
(dp114
g3
F0.0
sg4
F0.0
sg5
F202.0
sg6
F3670.0
sg7
F16.47059
sg8
F349.52
sg9
F53.33333
sg10
I749
sba(icommon
Rawdatastructure
p115
(dp116
g3
F0.0
sg4
F0.0
sg5
F202.0
sg6
F3670.0
sg7
F16.47059
sg8
F349.52
sg9
F53.33333
sg10
I744
sba(icommon
Rawdatastructure
p117
(dp118
g3
F0.0
sg4
F0.0
sg5
F202.0
sg6
F3670.0
sg7
F16.47059
sg8
F349.52
sg9
F53.33333
sg10
I738
sba(icommon
Rawdatastructure
p119
(dp120
g3
F0.0
sg4
F4.0
sg5
F202.0
sg6
F3670.0
sg7
F44.31373
sg8
F349.52
sg9
F53.33333
sg10
I1141
sba(icommon
Rawdatastructure
p121
(dp122
g3
F0.0
sg4
F27.0
sg5
F202.0
sg6
F3670.0
sg7
F26.66667
sg8
F349.52
sg9
F53.33333
sg10
I1225
sba(icommon
Rawdatastructure
p123
(dp124
g3
F0.0
sg4
F17.0
sg5
F202.0
sg6
F3670.0
sg7
F13.72549
sg8
F349.52
sg9
F53.33333
sg10
I786
sba(icommon
Rawdatastructure
p125
(dp126
g3
F0.0
sg4
F41.0
sg5
F202.0
sg6
F3670.0
sg7
F52.54902
sg8
F349.52
sg9
F53.33333
sg10
I1297
sba(icommon
Rawdatastructure
p127
(dp128
g3
F0.0
sg4
F47.0
sg5
F202.0
sg6
F3670.0
sg7
F23.52941
sg8
F349.52
sg9
F53.33333
sg10
I1563
sba(icommon
Rawdatastructure
p129
(dp130
g3
F0.0
sg4
F10.0
sg5
F202.0
sg6
F3670.0
sg7
F16.07843
sg8
F349.52
sg9
F53.33333
sg10
I736
sba(icommon
Rawdatastructure
p131
(dp132
g3
F0.0
sg4
F29.0
sg5
F202.0
sg6
F3670.0
sg7
F14.5098
sg8
F349.52
sg9
F53.33333
sg10
I748
sba(icommon
Rawdatastructure
p133
(dp134
g3
F0.0
sg4
F47.0
sg5
F202.0
sg6
F3670.0
sg7
F7.05882
sg8
F349.52
sg9
F53.33333
sg10
I1584
sba(icommon
Rawdatastructure
p135
(dp136
g3
F0.0
sg4
F6.0
sg5
F202.0
sg6
F3671.0
sg7
F14.11765
sg8
F349.52
sg9
F53.33333
sg10
I750
sba(icommon
Rawdatastructure
p137
(dp138
g3
F0.0
sg4
F18.0
sg5
F202.0
sg6
F3671.0
sg7
F13.72549
sg8
F349.52
sg9
F53.33333
sg10
I753
sba(icommon
Rawdatastructure
p139
(dp140
g3
F0.0
sg4
F14.0
sg5
F202.0
sg6
F3671.0
sg7
F27.05882
sg8
F349.52
sg9
F53.33333
sg10
I920
sba(icommon
Rawdatastructure
p141
(dp142
g3
F0.0
sg4
F21.0
sg5
F202.0
sg6
F3671.0
sg7
F12.15686
sg8
F349.52
sg9
F53.33333
sg10
I835
sba(icommon
Rawdatastructure
p143
(dp144
g3
F0.0
sg4
F32.0
sg5
F202.0
sg6
F3671.0
sg7
F41.96078
sg8
F349.52
sg9
F53.33333
sg10
I1441
sba(icommon
Rawdatastructure
p145
(dp146
g3
F0.0
sg4
F35.0
sg5
F202.0
sg6
F3671.0
sg7
F12.15686
sg8
F349.52
sg9
F53.33333
sg10
I1573
sba(icommon
Rawdatastructure
p147
(dp148
g3
F0.0
sg4
F36.0
sg5
F202.0
sg6
F3671.0
sg7
F17.2549
sg8
F349.52
sg9
F53.33333
sg10
I1346
sba(icommon
Rawdatastructure
p149
(dp150
g3
F0.0
sg4
F21.0
sg5
F202.0
sg6
F3671.0
sg7
F14.11765
sg8
F349.52
sg9
F53.33333
sg10
I730
sba(icommon
Rawdatastructure
p151
(dp152
g3
F0.0
sg4
F9.0
sg5
F202.0
sg6
F3671.0
sg7
F13.72549
sg8
F349.52
sg9
F53.33333
sg10
I757
sba(icommon
Rawdatastructure
p153
(dp154
g3
F0.0
sg4
F9.0
sg5
F202.0
sg6
F3671.0
sg7
F29.01961
sg8
F349.52
sg9
F53.33333
sg10
I1012
sba(icommon
Rawdatastructure
p155
(dp156
g3
F0.0
sg4
F13.0
sg5
F202.0
sg6
F3671.0
sg7
F13.33333
sg8
F349.52
sg9
F53.33333
sg10
I748
sba(icommon
Rawdatastructure
p157
(dp158
g3
F0.0
sg4
F17.0
sg5
F202.0
sg6
F3671.0
sg7
F33.72549
sg8
F349.52
sg9
F53.33333
sg10
I1214
sba(icommon
Rawdatastructure
p159
(dp160
g3
F0.0
sg4
F19.0
sg5
F202.0
sg6
F3671.0
sg7
F13.33333
sg8
F349.52
sg9
F53.33333
sg10
I803
sba(icommon
Rawdatastructure
p161
(dp162
g3
F0.0
sg4
F25.0
sg5
F202.0
sg6
F3671.0
sg7
F8.62745
sg8
F349.52
sg9
F53.33333
sg10
I1844
sba(icommon
Rawdatastructure
p163
(dp164
g3
F0.0
sg4
F22.0
sg5
F202.0
sg6
F3671.0
sg7
F7.05882
sg8
F349.52
sg9
F53.33333
sg10
I1591
sba(icommon
Rawdatastructure
p165
(dp166
g3
F0.0
sg4
F23.0
sg5
F202.0
sg6
F3671.0
sg7
F8.62745
sg8
F349.52
sg9
F53.33333
sg10
I1635
sba(icommon
Rawdatastructure
p167
(dp168
g3
F0.0
sg4
F21.0
sg5
F202.0
sg6
F3672.0
sg7
F10.19608
sg8
F349.52
sg9
F53.33333
sg10
I1573
sba(icommon
Rawdatastructure
p169
(dp170
g3
F0.0
sg4
F15.0
sg5
F202.0
sg6
F3672.0
sg7
F13.33333
sg8
F349.52
sg9
F53.33333
sg10
I753
sba(icommon
Rawdatastructure
p171
(dp172
g3
F0.0
sg4
F20.0
sg5
F202.0
sg6
F3672.0
sg7
F41.96078
sg8
F349.52
sg9
F53.33333
sg10
I911
sba(icommon
Rawdatastructure
p173
(dp174
g3
F0.0
sg4
F25.0
sg5
F202.0
sg6
F3672.0
sg7
F11.37255
sg8
F349.52
sg9
F53.33333
sg10
I1189
sba(icommon
Rawdatastructure
p175
(dp176
g3
F0.0
sg4
F20.0
sg5
F202.0
sg6
F3672.0
sg7
F13.72549
sg8
F349.52
sg9
F53.33333
sg10
I772
sba(icommon
Rawdatastructure
p177
(dp178
g3
F0.0
sg4
F25.0
sg5
F202.0
sg6
F3672.0
sg7
F10.98039
sg8
F349.52
sg9
F53.33333
sg10
I1193
sba(icommon
Rawdatastructure
p179
(dp180
g3
F0.0
sg4
F22.0
sg5
F202.0
sg6
F3672.0
sg7
F29.41176
sg8
F349.52
sg9
F53.33333
sg10
I956
sba(icommon
Rawdatastructure
p181
(dp182
g3
F0.0
sg4
F15.0
sg5
F202.0
sg6
F3672.0
sg7
F13.72549
sg8
F349.52
sg9
F53.33333
sg10
I749
sba(icommon
Rawdatastructure
p183
(dp184
g3
F0.0
sg4
F20.0
sg5
F202.0
sg6
F3672.0
sg7
F55.29412
sg8
F349.52
sg9
F53.33333
sg10
I891
sba(icommon
Rawdatastructure
p185
(dp186
g3
F0.0
sg4
F19.0
sg5
F202.0
sg6
F3672.0
sg7
F18.43137
sg8
F349.52
sg9
F53.33333
sg10
I886
sba(icommon
Rawdatastructure
p187
(dp188
g3
F0.0
sg4
F21.0
sg5
F202.0
sg6
F3672.0
sg7
F26.27451
sg8
F349.52
sg9
F53.33333
sg10
I976
sba(icommon
Rawdatastructure
p189
(dp190
g3
F0.0
sg4
F27.0
sg5
F202.0
sg6
F3672.0
sg7
F40.0
sg8
F349.52
sg9
F53.33333
sg10
I1196
sba(icommon
Rawdatastructure
p191
(dp192
g3
F0.0
sg4
F31.0
sg5
F202.0
sg6
F3672.0
sg7
F8.23529
sg8
F349.52
sg9
F53.33333
sg10
I1489
sba(icommon
Rawdatastructure
p193
(dp194
g3
F0.0
sg4
F27.0
sg5
F202.0
sg6
F3672.0
sg7
F13.72549
sg8
F349.52
sg9
F53.33333
sg10
I752
sba(icommon
Rawdatastructure
p195
(dp196
g3
F0.0
sg4
F27.0
sg5
F202.0
sg6
F3672.0
sg7
F12.54902
sg8
F349.52
sg9
F53.33333
sg10
I899
sba(icommon
Rawdatastructure
p197
(dp198
g3
F0.0
sg4
F34.0
sg5
F202.0
sg6
F3672.0
sg7
F9.01961
sg8
F349.52
sg9
F53.33333
sg10
I1121
sba(icommon
Rawdatastructure
p199
(dp200
g3
F0.0
sg4
F30.0
sg5
F202.0
sg6
F3673.0
sg7
F45.4902
sg8
F349.52
sg9
F53.33333
sg10
I1324
sba(icommon
Rawdatastructure
p201
(dp202
g3
F0.0
sg4
F9.0
sg5
F202.0
sg6
F3673.0
sg7
F19.60784
sg8
F349.52
sg9
F53.33333
sg10
I617
sba(icommon
Rawdatastructure
p203
(dp204
g3
F0.0
sg4
F11.0
sg5
F202.0
sg6
F3673.0
sg7
F14.11765
sg8
F349.52
sg9
F53.33333
sg10
I744
sba(icommon
Rawdatastructure
p205
(dp206
g3
F0.0
sg4
F28.0
sg5
F202.0
sg6
F3673.0
sg7
F12.15686
sg8
F349.52
sg9
F53.33333
sg10
I816
sba(icommon
Rawdatastructure
p207
(dp208
g3
F0.0
sg4
F35.0
sg5
F202.0
sg6
F3672.0
sg7
F15.29412
sg8
F349.52
sg9
F53.33333
sg10
I1585
sba(icommon
Rawdatastructure
p209
(dp210
g3
F0.0
sg4
F26.0
sg5
F202.0
sg6
F3672.0
sg7
F13.72549
sg8
F349.52
sg9
F53.33333
sg10
I756
sba(icommon
Rawdatastructure
p211
(dp212
g3
F0.0
sg4
F29.0
sg5
F202.0
sg6
F3673.0
sg7
F14.5098
sg8
F349.52
sg9
F53.33333
sg10
I1303
sba(icommon
Rawdatastructure
p213
(dp214
g3
F0.0
sg4
F37.0
sg5
F202.0
sg6
F3673.0
sg7
F7.45098
sg8
F349.52
sg9
F53.33333
sg10
I1721
sba(icommon
Rawdatastructure
p215
(dp216
g3
F0.0
sg4
F38.0
sg5
F202.0
sg6
F3673.0
sg7
F22.35294
sg8
F349.52
sg9
F53.33333
sg10
I1711
sba(icommon
Rawdatastructure
p217
(dp218
g3
F0.0
sg4
F34.0
sg5
F202.0
sg6
F3673.0
sg7
F26.27451
sg8
F349.52
sg9
F53.33333
sg10
I1534
sba(icommon
Rawdatastructure
p219
(dp220
g3
F0.0
sg4
F31.0
sg5
F202.0
sg6
F3673.0
sg7
F8.62745
sg8
F349.52
sg9
F53.33333
sg10
I1400
sba(icommon
Rawdatastructure
p221
(dp222
g3
F0.0
sg4
F33.0
sg5
F202.0
sg6
F3673.0
sg7
F11.37255
sg8
F349.52
sg9
F53.33333
sg10
I1528
sba(icommon
Rawdatastructure
p223
(dp224
g3
F0.0
sg4
F30.0
sg5
F202.0
sg6
F3673.0
sg7
F8.62745
sg8
F349.52
sg9
F53.33333
sg10
I1427
sba(icommon
Rawdatastructure
p225
(dp226
g3
F0.0
sg4
F37.0
sg5
F202.0
sg6
F3673.0
sg7
F17.64706
sg8
F349.52
sg9
F53.33333
sg10
I1714
sba(icommon
Rawdatastructure
p227
(dp228
g3
F0.0
sg4
F30.0
sg5
F202.0
sg6
F3673.0
sg7
F8.62745
sg8
F349.52
sg9
F53.33333
sg10
I1321
sba(icommon
Rawdatastructure
p229
(dp230
g3
F0.0
sg4
F44.0
sg5
F202.0
sg6
F3673.0
sg7
F27.84314
sg8
F349.52
sg9
F53.33333
sg10
I1457
sba(icommon
Rawdatastructure
p231
(dp232
g3
F0.0
sg4
F48.0
sg5
F202.0
sg6
F3673.0
sg7
F37.64706
sg8
F349.52
sg9
F53.33333
sg10
I1580
sba(icommon
Rawdatastructure
p233
(dp234
g3
F0.0
sg4
F45.0
sg5
F202.0
sg6
F3673.0
sg7
F7.45098
sg8
F349.52
sg9
F53.33333
sg10
I1504
sba(icommon
Rawdatastructure
p235
(dp236
g3
F0.0
sg4
F44.0
sg5
F202.0
sg6
F3674.0
sg7
F10.98039
sg8
F349.52
sg9
F53.33333
sg10
I1483
sba(icommon
Rawdatastructure
p237
(dp238
g3
F0.0
sg4
F47.0
sg5
F202.0
sg6
F3674.0
sg7
F8.62745
sg8
F349.52
sg9
F53.33333
sg10
I1537
sba(icommon
Rawdatastructure
p239
(dp240
g3
F0.0
sg4
F51.0
sg5
F202.0
sg6
F3674.0
sg7
F7.05882
sg8
F349.52
sg9
F53.33333
sg10
I1664
sba(icommon
Rawdatastructure
p241
(dp242
g3
F0.0
sg4
F43.0
sg5
F202.0
sg6
F3674.0
sg7
F13.72549
sg8
F349.52
sg9
F53.33333
sg10
I754
sba(icommon
Rawdatastructure
p243
(dp244
g3
F0.0
sg4
F37.0
sg5
F202.0
sg6
F3674.0
sg7
F13.72549
sg8
F349.52
sg9
F53.33333
sg10
I758
sba(icommon
Rawdatastructure
p245
(dp246
g3
F0.0
sg4
F35.0
sg5
F202.0
sg6
F3674.0
sg7
F20.0
sg8
F349.52
sg9
F53.33333
sg10
I1154
sba(icommon
Rawdatastructure
p247
(dp248
g3
F0.0
sg4
F15.0
sg5
F202.0
sg6
F3674.0
sg7
F14.11765
sg8
F349.52
sg9
F53.33333
sg10
I759
sba(icommon
Rawdatastructure
p249
(dp250
g3
F0.0
sg4
F39.0
sg5
F202.0
sg6
F3674.0
sg7
F43.52941
sg8
F349.52
sg9
F53.33333
sg10
I1270
sba(icommon
Rawdatastructure
p251
(dp252
g3
F0.0
sg4
F17.0
sg5
F202.0
sg6
F3674.0
sg7
F36.47059
sg8
F349.52
sg9
F53.33333
sg10
I1128
sba(icommon
Rawdatastructure
p253
(dp254
g3
F0.0
sg4
F9.0
sg5
F202.0
sg6
F3674.0
sg7
F14.5098
sg8
F349.52
sg9
F53.33333
sg10
I771
sba(icommon
Rawdatastructure
p255
(dp256
g3
F0.0
sg4
F26.0
sg5
F202.0
sg6
F3674.0
sg7
F33.33333
sg8
F349.52
sg9
F53.33333
sg10
I1297
sba(icommon
Rawdatastructure
p257
(dp258
g3
F0.0
sg4
F36.0
sg5
F202.0
sg6
F3674.0
sg7
F25.4902
sg8
F349.52
sg9
F53.33333
sg10
I1120
sba(icommon
Rawdatastructure
p259
(dp260
g3
F0.0
sg4
F51.0
sg5
F202.0
sg6
F3674.0
sg7
F40.78431
sg8
F349.52
sg9
F53.33333
sg10
I1651
sba(icommon
Rawdatastructure
p261
(dp262
g3
F0.0
sg4
F54.0
sg5
F202.0
sg6
F3674.0
sg7
F7.45098
sg8
F349.52
sg9
F53.33333
sg10
I1788
sba(icommon
Rawdatastructure
p263
(dp264
g3
F0.0
sg4
F60.0
sg5
F202.0
sg6
F3675.0
sg7
F13.72549
sg8
F349.52
sg9
F53.33333
sg10
I1972
sba(icommon
Rawdatastructure
p265
(dp266
g3
F0.0
sg4
F59.0
sg5
F202.0
sg6
F3675.0
sg7
F11.37255
sg8
F349.52
sg9
F53.33333
sg10
I1808
sba(icommon
Rawdatastructure
p267
(dp268
g3
F0.0
sg4
F46.0
sg5
F202.0
sg6
F3675.0
sg7
F13.72549
sg8
F349.52
sg9
F53.33333
sg10
I754
sba(icommon
Rawdatastructure
p269
(dp270
g3
F0.0
sg4
F0.0
sg5
F202.0
sg6
F3675.0
sg7
F13.72549
sg8
F349.52
sg9
F53.33333
sg10
I765
sba(icommon
Rawdatastructure
p271
(dp272
g3
F0.0
sg4
F15.0
sg5
F202.0
sg6
F3675.0
sg7
F13.72549
sg8
F349.52
sg9
F53.33333
sg10
I754
sba(icommon
Rawdatastructure
p273
(dp274
g3
F0.0
sg4
F0.0
sg5
F202.0
sg6
F3675.0
sg7
F13.33333
sg8
F349.52
sg9
F53.33333
sg10
I761
sba(icommon
Rawdatastructure
p275
(dp276
g3
F0.0
sg4
F11.0
sg5
F202.0
sg6
F3675.0
sg7
F10.19608
sg8
F349.52
sg9
F53.33333
sg10
I1152
sba(icommon
Rawdatastructure
p277
(dp278
g3
F0.0
sg4
F15.0
sg5
F202.0
sg6
F3675.0
sg7
F39.21569
sg8
F349.52
sg9
F53.33333
sg10
I1975
sba(icommon
Rawdatastructure
p279
(dp280
g3
F0.0
sg4
F32.0
sg5
F202.0
sg6
F3675.0
sg7
F56.86275
sg8
F349.52
sg9
F53.33333
sg10
I1426
sba(icommon
Rawdatastructure
p281
(dp282
g3
F0.0
sg4
F39.0
sg5
F202.0
sg6
F3675.0
sg7
F29.41176
sg8
F349.52
sg9
F53.33333
sg10
I1272
sba(icommon
Rawdatastructure
p283
(dp284
g3
F0.0
sg4
F35.0
sg5
F202.0
sg6
F3675.0
sg7
F13.72549
sg8
F349.52
sg9
F53.33333
sg10
I752
sba(icommon
Rawdatastructure
p285
(dp286
g3
F0.0
sg4
F1.0
sg5
F202.0
sg6
F3675.0
sg7
F13.33333
sg8
F349.52
sg9
F53.33333
sg10
I756
sba(icommon
Rawdatastructure
p287
(dp288
g3
F0.0
sg4
F0.0
sg5
F202.0
sg6
F3675.0
sg7
F14.11765
sg8
F349.52
sg9
F53.33333
sg10
I765
sba(icommon
Rawdatastructure
p289
(dp290
g3
F0.0
sg4
F0.0
sg5
F202.0
sg6
F3675.0
sg7
F13.72549
sg8
F349.52
sg9
F53.33333
sg10
I750
sba(icommon
Rawdatastructure
p291
(dp292
g3
F0.0
sg4
F0.0
sg5
F202.0
sg6
F3675.0
sg7
F13.72549
sg8
F349.52
sg9
F53.33333
sg10
I760
sba(icommon
Rawdatastructure
p293
(dp294
g3
F0.0
sg4
F0.0
sg5
F202.0
sg6
F3675.0
sg7
F14.11765
sg8
F349.52
sg9
F53.33333
sg10
I759
sba(icommon
Rawdatastructure
p295
(dp296
g3
F0.0
sg4
F0.0
sg5
F202.0
sg6
F3675.0
sg7
F13.72549
sg8
F349.52
sg9
F53.33333
sg10
I763
sba(icommon
Rawdatastructure
p297
(dp298
g3
F0.0
sg4
F0.0
sg5
F202.0
sg6
F3675.0
sg7
F14.11765
sg8
F349.52
sg9
F53.33333
sg10
I758
sba(icommon
Rawdatastructure
p299
(dp300
g3
F0.0
sg4
F0.0
sg5
F202.0
sg6
F3675.0
sg7
F14.11765
sg8
F349.52
sg9
F53.33333
sg10
I758
sba(icommon
Rawdatastructure
p301
(dp302
g3
F0.0
sg4
F0.0
sg5
F202.0
sg6
F3675.0
sg7
F14.11765
sg8
F349.52
sg9
F53.33333
sg10
I762
sba(icommon
Rawdatastructure
p303
(dp304
g3
F0.0
sg4
F49.0
sg5
F202.0
sg6
F3676.0
sg7
F23.13725
sg8
F349.52
sg9
F53.33333
sg10
I1616
sba(icommon
Rawdatastructure
p305
(dp306
g3
F0.0
sg4
F51.0
sg5
F202.0
sg6
F3676.0
sg7
F8.23529
sg8
F349.52
sg9
F53.33333
sg10
I1664
sba(icommon
Rawdatastructure
p307
(dp308
g3
F0.0
sg4
F45.0
sg5
F202.0
sg6
F3676.0
sg7
F6.66667
sg8
F349.52
sg9
F53.33333
sg10
I1505
sba(icommon
Rawdatastructure
p309
(dp310
g3
F0.0
sg4
F43.0
sg5
F202.0
sg6
F3676.0
sg7
F17.64706
sg8
F349.52
sg9
F53.33333
sg10
I1412
sba(icommon
Rawdatastructure
p311
(dp312
g3
F0.0
sg4
F40.0
sg5
F202.0
sg6
F3676.0
sg7
F16.07843
sg8
F349.52
sg9
F53.33333
sg10
I1301
sba(icommon
Rawdatastructure
p313
(dp314
g3
F0.0
sg4
F37.0
sg5
F202.0
sg6
F3676.0
sg7
F7.45098
sg8
F349.52
sg9
F53.33333
sg10
I1258
sba(icommon
Rawdatastructure
p315
(dp316
g3
F0.0
sg4
F47.0
sg5
F202.0
sg6
F3676.0
sg7
F37.64706
sg8
F349.52
sg9
F53.33333
sg10
I1539
sba(icommon
Rawdatastructure
p317
(dp318
g3
F0.0
sg4
F49.0
sg5
F202.0
sg6
F3676.0
sg7
F13.72549
sg8
F349.52
sg9
F53.33333
sg10
I876
sba(icommon
Rawdatastructure
p319
(dp320
g3
F0.0
sg4
F32.0
sg5
F202.0
sg6
F3677.0
sg7
F13.33333
sg8
F349.52
sg9
F53.33333
sg10
I766
sba(icommon
Rawdatastructure
p321
(dp322
g3
F0.0
sg4
F24.0
sg5
F202.0
sg6
F3677.0
sg7
F13.72549
sg8
F349.52
sg9
F53.33333
sg10
I755
sba(icommon
Rawdatastructure
p323
(dp324
g3
F0.0
sg4
F13.0
sg5
F202.0
sg6
F3677.0
sg7
F13.33333
sg8
F349.52
sg9
F53.33333
sg10
I743
sba(icommon
Rawdatastructure
p325
(dp326
g3
F0.0
sg4
F12.0
sg5
F202.0
sg6
F3677.0
sg7
F13.72549
sg8
F349.52
sg9
F53.33333
sg10
I749
sba(icommon
Rawdatastructure
p327
(dp328
g3
F0.0
sg4
F0.0
sg5
F202.0
sg6
F3677.0
sg7
F13.33333
sg8
F349.52
sg9
F53.33333
sg10
I754
sba(icommon
Rawdatastructure
p329
(dp330
g3
F0.0
sg4
F0.0
sg5
F202.0
sg6
F3677.0
sg7
F13.72549
sg8
F349.52
sg9
F53.33333
sg10
I760
sba(icommon
Rawdatastructure
p331
(dp332
g3
F0.0
sg4
F0.0
sg5
F202.0
sg6
F3677.0
sg7
F13.33333
sg8
F349.52
sg9
F53.33333
sg10
I766
sba(icommon
Rawdatastructure
p333
(dp334
g3
F0.0
sg4
F0.0
sg5
F202.0
sg6
F3677.0
sg7
F13.33333
sg8
F349.52
sg9
F53.33333
sg10
I763
sba(icommon
Rawdatastructure
p335
(dp336
g3
F0.0
sg4
F0.0
sg5
F202.0
sg6
F3677.0
sg7
F13.33333
sg8
F349.52
sg9
F53.33333
sg10
I753
sba(icommon
Rawdatastructure
p337
(dp338
g3
F0.0
sg4
F0.0
sg5
F202.0
sg6
F3677.0
sg7
F13.72549
sg8
F349.52
sg9
F53.33333
sg10
I760
sba(icommon
Rawdatastructure
p339
(dp340
g3
F0.0
sg4
F0.0
sg5
F202.0
sg6
F3677.0
sg7
F14.11765
sg8
F349.52
sg9
F53.33333
sg10
I762
sba(icommon
Rawdatastructure
p341
(dp342
g3
F0.0
sg4
F9.0
sg5
F202.0
sg6
F3677.0
sg7
F22.7451
sg8
F349.52
sg9
F53.33333
sg10
I1202
sba(icommon
Rawdatastructure
p343
(dp344
g3
F0.0
sg4
F9.0
sg5
F202.0
sg6
F3677.0
sg7
F14.11765
sg8
F349.52
sg9
F53.33333
sg10
I1485
sba(icommon
Rawdatastructure
p345
(dp346
g3
F0.0
sg4
F0.0
sg5
F202.0
sg6
F3677.0
sg7
F13.33333
sg8
F349.52
sg9
F53.33333
sg10
I750
sba(icommon
Rawdatastructure
p347
(dp348
g3
F0.0
sg4
F1.0
sg5
F202.0
sg6
F3677.0
sg7
F14.11765
sg8
F349.52
sg9
F53.33333
sg10
I1256
sba(icommon
Rawdatastructure
p349
(dp350
g3
F0.0
sg4
F28.0
sg5
F202.0
sg6
F3677.0
sg7
F38.43137
sg8
F349.52
sg9
F53.33333
sg10
I2020
sba(icommon
Rawdatastructure
p351
(dp352
g3
F0.0
sg4
F37.0
sg5
F202.0
sg6
F3677.0
sg7
F21.17647
sg8
F349.52
sg9
F53.33333
sg10
I1743
sba(icommon
Rawdatastructure
p353
(dp354
g3
F0.0
sg4
F29.0
sg5
F202.0
sg6
F3677.0
sg7
F7.45098
sg8
F349.52
sg9
F53.33333
sg10
I1366
sba(icommon
Rawdatastructure
p355
(dp356
g3
F0.0
sg4
F10.0
sg5
F202.0
sg6
F3677.0
sg7
F14.11765
sg8
F349.52
sg9
F53.33333
sg10
I761
sba(icommon
Rawdatastructure
p357
(dp358
g3
F0.0
sg4
F21.0
sg5
F202.0
sg6
F3677.0
sg7
F34.90196
sg8
F349.52
sg9
F53.33333
sg10
I1418
sba(icommon
Rawdatastructure
p359
(dp360
g3
F0.0
sg4
F31.0
sg5
F202.0
sg6
F3677.0
sg7
F13.33333
sg8
F349.52
sg9
F53.33333
sg10
I1042
sba(icommon
Rawdatastructure
p361
(dp362
g3
F0.0
sg4
F25.0
sg5
F202.0
sg6
F3677.0
sg7
F13.72549
sg8
F349.52
sg9
F53.33333
sg10
I1084
sba(icommon
Rawdatastructure
p363
(dp364
g3
F0.0
sg4
F41.0
sg5
F202.0
sg6
F3677.0
sg7
F34.11765
sg8
F349.52
sg9
F53.33333
sg10
I1327
sba(icommon
Rawdatastructure
p365
(dp366
g3
F0.0
sg4
F47.0
sg5
F202.0
sg6
F3677.0
sg7
F31.37255
sg8
F349.52
sg9
F53.33333
sg10
I1544
sba(icommon
Rawdatastructure
p367
(dp368
g3
F0.0
sg4
F53.0
sg5
F202.0
sg6
F3677.0
sg7
F10.58824
sg8
F349.52
sg9
F53.33333
sg10
I1339
sba(icommon
Rawdatastructure
p369
(dp370
g3
F0.0
sg4
F42.0
sg5
F202.0
sg6
F3677.0
sg7
F13.72549
sg8
F349.52
sg9
F53.33333
sg10
I764
sba(icommon
Rawdatastructure
p371
(dp372
g3
F0.0
sg4
F43.0
sg5
F202.0
sg6
F3678.0
sg7
F11.76471
sg8
F349.52
sg9
F53.33333
sg10
I1019
sba(icommon
Rawdatastructure
p373
(dp374
g3
F0.0
sg4
F23.0
sg5
F202.0
sg6
F3678.0
sg7
F14.11765
sg8
F349.52
sg9
F53.33333
sg10
I758
sba(icommon
Rawdatastructure
p375
(dp376
g3
F0.0
sg4
F33.0
sg5
F202.0
sg6
F3678.0
sg7
F28.62745
sg8
F349.52
sg9
F53.33333
sg10
I1065
sba(icommon
Rawdatastructure
p377
(dp378
g3
F0.0
sg4
F21.0
sg5
F202.0
sg6
F3678.0
sg7
F14.5098
sg8
F349.52
sg9
F53.33333
sg10
I758
sba(icommon
Rawdatastructure
p379
(dp380
g3
F0.0
sg4
F22.0
sg5
F202.0
sg6
F3678.0
sg7
F43.52941
sg8
F349.52
sg9
F53.33333
sg10
I990
sba(icommon
Rawdatastructure
p381
(dp382
g3
F0.0
sg4
F11.0
sg5
F202.0
sg6
F3678.0
sg7
F13.33333
sg8
F349.52
sg9
F53.33333
sg10
I752
sba(icommon
Rawdatastructure
p383
(dp384
g3
F0.0
sg4
F18.0
sg5
F202.0
sg6
F3678.0
sg7
F12.94118
sg8
F349.52
sg9
F53.33333
sg10
I1063
sba(icommon
Rawdatastructure
p385
(dp386
g3
F0.0
sg4
F23.0
sg5
F202.0
sg6
F3678.0
sg7
F26.27451
sg8
F349.52
sg9
F53.33333
sg10
I1056
sba(icommon
Rawdatastructure
p387
(dp388
g3
F0.0
sg4
F19.0
sg5
F202.0
sg6
F3678.0
sg7
F20.78431
sg8
F349.52
sg9
F53.33333
sg10
I774
sba(icommon
Rawdatastructure
p389
(dp390
g3
F0.0
sg4
F16.0
sg5
F202.0
sg6
F3678.0
sg7
F13.72549
sg8
F349.52
sg9
F53.33333
sg10
I750
sba(icommon
Rawdatastructure
p391
(dp392
g3
F0.0
sg4
F8.0
sg5
F202.0
sg6
F3678.0
sg7
F13.33333
sg8
F349.52
sg9
F53.33333
sg10
I755
sba(icommon
Rawdatastructure
p393
(dp394
g3
F0.0
sg4
F6.0
sg5
F202.0
sg6
F3678.0
sg7
F14.11765
sg8
F349.52
sg9
F53.33333
sg10
I724
sba(icommon
Rawdatastructure
p395
(dp396
g3
F0.0
sg4
F3.0
sg5
F202.0
sg6
F3678.0
sg7
F15.68627
sg8
F349.52
sg9
F53.33333
sg10
I761
sba(icommon
Rawdatastructure
p397
(dp398
g3
F0.0
sg4
F10.0
sg5
F202.0
sg6
F3678.0
sg7
F23.13725
sg8
F349.52
sg9
F53.33333
sg10
I1351
sba(icommon
Rawdatastructure
p399
(dp400
g3
F0.0
sg4
F14.0
sg5
F202.0
sg6
F3678.0
sg7
F10.19608
sg8
F349.52
sg9
F53.33333
sg10
I1157
sba(icommon
Rawdatastructure
p401
(dp402
g3
F0.0
sg4
F0.0
sg5
F202.0
sg6
F3678.0
sg7
F13.72549
sg8
F349.52
sg9
F53.33333
sg10
I742
sba(icommon
Rawdatastructure
p403
(dp404
g3
F0.0
sg4
F2.0
sg5
F202.0
sg6
F3678.0
sg7
F22.35294
sg8
F349.52
sg9
F53.33333
sg10
I776
sba(icommon
Rawdatastructure
p405
(dp406
g3
F0.0
sg4
F2.0
sg5
F202.0
sg6
F3678.0
sg7
F18.43137
sg8
F349.52
sg9
F53.33333
sg10
I759
sba(icommon
Rawdatastructure
p407
(dp408
g3
F0.0
sg4
F0.0
sg5
F202.0
sg6
F3678.0
sg7
F13.72549
sg8
F349.52
sg9
F53.33333
sg10
I762
sba(icommon
Rawdatastructure
p409
(dp410
g3
F0.0
sg4
F12.0
sg5
F202.0
sg6
F3678.0
sg7
F35.29412
sg8
F349.52
sg9
F53.33333
sg10
I849
sba(icommon
Rawdatastructure
p411
(dp412
g3
F0.0
sg4
F11.0
sg5
F202.0
sg6
F3678.0
sg7
F13.72549
sg8
F349.52
sg9
F53.33333
sg10
I747
sba.