(lp0
(icommon
Rawdatastructure
p1
(dp2
S'initial_mil'
p3
F0.0
sS'vss'
p4
F10.0
sS'mil_dist'
p5
F202.0
sS'maf'
p6
F349.52
sS'clr_dist'
p7
F3686.0
sS'load_pct'
p8
F25.4902
sS'obdid'
p9
L194174L
sS'app_r'
p10
F53.33333
sS'rpm'
p11
I725
sba(icommon
Rawdatastructure
p12
(dp13
g3
F0.0
sg4
F11.0
sg5
F202.0
sg6
F349.52
sg7
F3686.0
sg8
F27.84314
sg9
L194175L
sg10
F53.33333
sg11
I1141
sba(icommon
Rawdatastructure
p14
(dp15
g3
F0.0
sg4
F32.0
sg5
F202.0
sg6
F349.52
sg7
F3686.0
sg8
F32.94118
sg9
L194176L
sg10
F53.33333
sg11
I1459
sba(icommon
Rawdatastructure
p16
(dp17
g3
F0.0
sg4
F31.0
sg5
F202.0
sg6
F349.52
sg7
F3686.0
sg8
F15.68627
sg9
L194177L
sg10
F53.33333
sg11
I743
sba(icommon
Rawdatastructure
p18
(dp19
g3
F0.0
sg4
F30.0
sg5
F202.0
sg6
F349.52
sg7
F3686.0
sg8
F16.86275
sg9
L194178L
sg10
F53.33333
sg11
I748
sba(icommon
Rawdatastructure
p20
(dp21
g3
F0.0
sg4
F0.0
sg5
F202.0
sg6
F349.52
sg7
F3686.0
sg8
F17.64706
sg9
L194180L
sg10
F53.33333
sg11
I705
sba(icommon
Rawdatastructure
p22
(dp23
g3
F0.0
sg4
F4.0
sg5
F202.0
sg6
F349.52
sg7
F3686.0
sg8
F16.86275
sg9
L194179L
sg10
F53.33333
sg11
I715
sba(icommon
Rawdatastructure
p24
(dp25
g3
F0.0
sg4
F0.0
sg5
F202.0
sg6
F349.52
sg7
F3686.0
sg8
F17.2549
sg9
L194183L
sg10
F53.33333
sg11
I717
sba(icommon
Rawdatastructure
p26
(dp27
g3
F0.0
sg4
F0.0
sg5
F202.0
sg6
F349.52
sg7
F3686.0
sg8
F17.2549
sg9
L194182L
sg10
F53.33333
sg11
I714
sba(icommon
Rawdatastructure
p28
(dp29
g3
F0.0
sg4
F0.0
sg5
F202.0
sg6
F349.52
sg7
F3686.0
sg8
F17.64706
sg9
L194181L
sg10
F53.33333
sg11
I728
sba(icommon
Rawdatastructure
p30
(dp31
g3
F0.0
sg4
F0.0
sg5
F202.0
sg6
F349.52
sg7
F3686.0
sg8
F17.2549
sg9
L194185L
sg10
F53.33333
sg11
I730
sba(icommon
Rawdatastructure
p32
(dp33
g3
F0.0
sg4
F0.0
sg5
F202.0
sg6
F349.52
sg7
F3686.0
sg8
F17.2549
sg9
L194184L
sg10
F53.33333
sg11
I720
sba(icommon
Rawdatastructure
p34
(dp35
g3
F0.0
sg4
F0.0
sg5
F202.0
sg6
F349.52
sg7
F3686.0
sg8
F17.2549
sg9
L194186L
sg10
F53.33333
sg11
I718
sba(icommon
Rawdatastructure
p36
(dp37
g3
F0.0
sg4
F16.0
sg5
F202.0
sg6
F349.52
sg7
F3686.0
sg8
F39.60784
sg9
L194187L
sg10
F53.33333
sg11
I1999
sba(icommon
Rawdatastructure
p38
(dp39
g3
F0.0
sg4
F23.0
sg5
F202.0
sg6
F349.52
sg7
F3687.0
sg8
F35.68627
sg9
L194188L
sg10
F53.33333
sg11
I982
sba(icommon
Rawdatastructure
p40
(dp41
g3
F0.0
sg4
F29.0
sg5
F202.0
sg6
F349.52
sg7
F3687.0
sg8
F59.21569
sg9
L194189L
sg10
F53.33333
sg11
I1324
sba(icommon
Rawdatastructure
p42
(dp43
g3
F0.0
sg4
F34.0
sg5
F202.0
sg6
F349.52
sg7
F3687.0
sg8
F54.90196
sg9
L194190L
sg10
F53.33333
sg11
I1114
sba(icommon
Rawdatastructure
p44
(dp45
g3
F0.0
sg4
F37.0
sg5
F202.0
sg6
F349.52
sg7
F3687.0
sg8
F12.15686
sg9
L194191L
sg10
F53.33333
sg11
I1220
sba(icommon
Rawdatastructure
p46
(dp47
g3
F0.0
sg4
F32.0
sg5
F202.0
sg6
F349.52
sg7
F3687.0
sg8
F13.72549
sg9
L194192L
sg10
F53.33333
sg11
I777
sba(icommon
Rawdatastructure
p48
(dp49
g3
F0.0
sg4
F30.0
sg5
F202.0
sg6
F349.52
sg7
F3687.0
sg8
F27.84314
sg9
L194193L
sg10
F53.33333
sg11
I975
sba(icommon
Rawdatastructure
p50
(dp51
g3
F0.0
sg4
F33.0
sg5
F202.0
sg6
F349.52
sg7
F3687.0
sg8
F27.84314
sg9
L194194L
sg10
F53.33333
sg11
I1121
sba(icommon
Rawdatastructure
p52
(dp53
g3
F0.0
sg4
F22.0
sg5
F202.0
sg6
F349.52
sg7
F3687.0
sg8
F14.90196
sg9
L194195L
sg10
F53.33333
sg11
I729
sba(icommon
Rawdatastructure
p54
(dp55
g3
F0.0
sg4
F7.0
sg5
F202.0
sg6
F349.52
sg7
F3687.0
sg8
F16.07843
sg9
L194196L
sg10
F53.33333
sg11
I716
sba(icommon
Rawdatastructure
p56
(dp57
g3
F0.0
sg4
F1.0
sg5
F202.0
sg6
F349.52
sg7
F3687.0
sg8
F16.07843
sg9
L194197L
sg10
F53.33333
sg11
I744
sba(icommon
Rawdatastructure
p58
(dp59
g3
F0.0
sg4
F2.0
sg5
F202.0
sg6
F349.52
sg7
F3687.0
sg8
F22.7451
sg9
L194198L
sg10
F53.33333
sg11
I682
sba(icommon
Rawdatastructure
p60
(dp61
g3
F0.0
sg4
F0.0
sg5
F202.0
sg6
F349.52
sg7
F3687.0
sg8
F17.2549
sg9
L194199L
sg10
F53.33333
sg11
I736
sba(icommon
Rawdatastructure
p62
(dp63
g3
F0.0
sg4
F11.0
sg5
F202.0
sg6
F349.52
sg7
F3687.0
sg8
F13.33333
sg9
L194200L
sg10
F53.33333
sg11
I807
sba(icommon
Rawdatastructure
p64
(dp65
g3
F0.0
sg4
F4.0
sg5
F202.0
sg6
F349.52
sg7
F3687.0
sg8
F16.86275
sg9
L194201L
sg10
F53.33333
sg11
I753
sba(icommon
Rawdatastructure
p66
(dp67
g3
F0.0
sg4
F16.0
sg5
F202.0
sg6
F349.52
sg7
F3687.0
sg8
F9.01961
sg9
L194202L
sg10
F53.33333
sg11
I1086
sba(icommon
Rawdatastructure
p68
(dp69
g3
F0.0
sg4
F24.0
sg5
F202.0
sg6
F349.52
sg7
F3687.0
sg8
F13.33333
sg9
L194203L
sg10
F53.33333
sg11
I1015
sba(icommon
Rawdatastructure
p70
(dp71
g3
F0.0
sg4
F12.0
sg5
F202.0
sg6
F349.52
sg7
F3687.0
sg8
F15.68627
sg9
L194204L
sg10
F53.33333
sg11
I734
sba(icommon
Rawdatastructure
p72
(dp73
g3
F0.0
sg4
F12.0
sg5
F202.0
sg6
F349.52
sg7
F3687.0
sg8
F14.5098
sg9
L194205L
sg10
F53.33333
sg11
I731
sba(icommon
Rawdatastructure
p74
(dp75
g3
F0.0
sg4
F20.0
sg5
F202.0
sg6
F349.52
sg7
F3687.0
sg8
F33.33333
sg9
L194206L
sg10
F53.33333
sg11
I949
sba(icommon
Rawdatastructure
p76
(dp77
g3
F0.0
sg4
F5.0
sg5
F202.0
sg6
F349.52
sg7
F3687.0
sg8
F23.92157
sg9
L194207L
sg10
F53.33333
sg11
I703
sba(icommon
Rawdatastructure
p78
(dp79
g3
F0.0
sg4
F0.0
sg5
F202.0
sg6
F349.52
sg7
F3687.0
sg8
F16.47059
sg9
L194209L
sg10
F53.33333
sg11
I727
sba(icommon
Rawdatastructure
p80
(dp81
g3
F0.0
sg4
F0.0
sg5
F202.0
sg6
F349.52
sg7
F3687.0
sg8
F19.60784
sg9
L194208L
sg10
F53.33333
sg11
I731
sba(icommon
Rawdatastructure
p82
(dp83
g3
F0.0
sg4
F0.0
sg5
F202.0
sg6
F349.52
sg7
F3687.0
sg8
F16.47059
sg9
L194210L
sg10
F53.33333
sg11
I744
sba(icommon
Rawdatastructure
p84
(dp85
g3
F0.0
sg4
F0.0
sg5
F202.0
sg6
F349.52
sg7
F3687.0
sg8
F16.47059
sg9
L194211L
sg10
F53.33333
sg11
I734
sba(icommon
Rawdatastructure
p86
(dp87
g3
F0.0
sg4
F21.0
sg5
F202.0
sg6
F349.52
sg7
F3687.0
sg8
F29.01961
sg9
L194212L
sg10
F53.33333
sg11
I1447
sba(icommon
Rawdatastructure
p88
(dp89
g3
F0.0
sg4
F31.0
sg5
F202.0
sg6
F349.52
sg7
F3687.0
sg8
F21.17647
sg9
L194213L
sg10
F53.33333
sg11
I1433
sba(icommon
Rawdatastructure
p90
(dp91
g3
F0.0
sg4
F33.0
sg5
F202.0
sg6
F349.52
sg7
F3687.0
sg8
F12.15686
sg9
L194214L
sg10
F53.33333
sg11
I848
sba(icommon
Rawdatastructure
p92
(dp93
g3
F0.0
sg4
F35.0
sg5
F202.0
sg6
F349.52
sg7
F3687.0
sg8
F13.33333
sg9
L194215L
sg10
F53.33333
sg11
I783
sba(icommon
Rawdatastructure
p94
(dp95
g3
F0.0
sg4
F31.0
sg5
F202.0
sg6
F349.52
sg7
F3687.0
sg8
F16.47059
sg9
L194216L
sg10
F53.33333
sg11
I744
sba(icommon
Rawdatastructure
p96
(dp97
g3
F0.0
sg4
F23.0
sg5
F202.0
sg6
F349.52
sg7
F3688.0
sg8
F14.5098
sg9
L194217L
sg10
F53.33333
sg11
I729
sba(icommon
Rawdatastructure
p98
(dp99
g3
F0.0
sg4
F16.0
sg5
F202.0
sg6
F349.52
sg7
F3688.0
sg8
F24.70588
sg9
L194218L
sg10
F53.33333
sg11
I718
sba(icommon
Rawdatastructure
p100
(dp101
g3
F0.0
sg4
F12.0
sg5
F202.0
sg6
F349.52
sg7
F3688.0
sg8
F16.07843
sg9
L194219L
sg10
F53.33333
sg11
I733
sba(icommon
Rawdatastructure
p102
(dp103
g3
F0.0
sg4
F19.0
sg5
F202.0
sg6
F349.52
sg7
F3688.0
sg8
F23.52941
sg9
L194220L
sg10
F53.33333
sg11
I1318
sba(icommon
Rawdatastructure
p104
(dp105
g3
F0.0
sg4
F31.0
sg5
F202.0
sg6
F349.52
sg7
F3688.0
sg8
F29.01961
sg9
L194221L
sg10
F53.33333
sg11
I1428
sba(icommon
Rawdatastructure
p106
(dp107
g3
F0.0
sg4
F14.0
sg5
F202.0
sg6
F349.52
sg7
F3688.0
sg8
F14.11765
sg9
L194222L
sg10
F53.33333
sg11
I714
sba(icommon
Rawdatastructure
p108
(dp109
g3
F0.0
sg4
F0.0
sg5
F202.0
sg6
F349.52
sg7
F3688.0
sg8
F23.52941
sg9
L194223L
sg10
F53.33333
sg11
I732
sba(icommon
Rawdatastructure
p110
(dp111
g3
F0.0
sg4
F0.0
sg5
F202.0
sg6
F349.52
sg7
F3688.0
sg8
F16.07843
sg9
L194224L
sg10
F53.33333
sg11
I751
sba(icommon
Rawdatastructure
p112
(dp113
g3
F0.0
sg4
F0.0
sg5
F202.0
sg6
F349.52
sg7
F3688.0
sg8
F15.29412
sg9
L194225L
sg10
F53.33333
sg11
I757
sba(icommon
Rawdatastructure
p114
(dp115
g3
F0.0
sg4
F0.0
sg5
F202.0
sg6
F349.52
sg7
F3688.0
sg8
F15.68627
sg9
L194226L
sg10
F53.33333
sg11
I749
sba(icommon
Rawdatastructure
p116
(dp117
g3
F0.0
sg4
F0.0
sg5
F202.0
sg6
F349.52
sg7
F3688.0
sg8
F15.68627
sg9
L194227L
sg10
F53.33333
sg11
I747
sba(icommon
Rawdatastructure
p118
(dp119
g3
F0.0
sg4
F0.0
sg5
F202.0
sg6
F349.52
sg7
F3688.0
sg8
F15.68627
sg9
L194228L
sg10
F53.33333
sg11
I755
sba(icommon
Rawdatastructure
p120
(dp121
g3
F0.0
sg4
F0.0
sg5
F202.0
sg6
F349.52
sg7
F3688.0
sg8
F15.29412
sg9
L194229L
sg10
F53.33333
sg11
I752
sba(icommon
Rawdatastructure
p122
(dp123
g3
F0.0
sg4
F7.0
sg5
F202.0
sg6
F349.52
sg7
F3688.0
sg8
F39.21569
sg9
L194230L
sg10
F53.33333
sg11
I1391
sba(icommon
Rawdatastructure
p124
(dp125
g3
F0.0
sg4
F28.0
sg5
F202.0
sg6
F349.52
sg7
F3688.0
sg8
F14.90196
sg9
L194231L
sg10
F53.33333
sg11
I1153
sba(icommon
Rawdatastructure
p126
(dp127
g3
F0.0
sg4
F31.0
sg5
F202.0
sg6
F349.52
sg7
F3688.0
sg8
F12.54902
sg9
L194232L
sg10
F53.33333
sg11
I1433
sba(icommon
Rawdatastructure
p128
(dp129
g3
F0.0
sg4
F28.0
sg5
F202.0
sg6
F349.52
sg7
F3688.0
sg8
F13.72549
sg9
L194233L
sg10
F53.33333
sg11
I795
sba(icommon
Rawdatastructure
p130
(dp131
g3
F0.0
sg4
F27.0
sg5
F202.0
sg6
F349.52
sg7
F3688.0
sg8
F19.60784
sg9
L194234L
sg10
F53.33333
sg11
I1224
sba(icommon
Rawdatastructure
p132
(dp133
g3
F0.0
sg4
F24.0
sg5
F202.0
sg6
F349.52
sg7
F3688.0
sg8
F13.33333
sg9
L194235L
sg10
F53.33333
sg11
I744
sba(icommon
Rawdatastructure
p134
(dp135
g3
F0.0
sg4
F30.0
sg5
F202.0
sg6
F349.52
sg7
F3688.0
sg8
F30.58824
sg9
L194236L
sg10
F53.33333
sg11
I1365
sba(icommon
Rawdatastructure
p136
(dp137
g3
F0.0
sg4
F49.0
sg5
F202.0
sg6
F349.52
sg7
F3688.0
sg8
F12.54902
sg9
L194237L
sg10
F53.33333
sg11
I1625
sba(icommon
Rawdatastructure
p138
(dp139
g3
F0.0
sg4
F55.0
sg5
F202.0
sg6
F349.52
sg7
F3688.0
sg8
F83.13725
sg9
L194238L
sg10
F53.33333
sg11
I1378
sba(icommon
Rawdatastructure
p140
(dp141
g3
F0.0
sg4
F36.0
sg5
F202.0
sg6
F349.52
sg7
F3689.0
sg8
F12.94118
sg9
L194240L
sg10
F53.33333
sg11
I743
sba(icommon
Rawdatastructure
p142
(dp143
g3
F0.0
sg4
F46.0
sg5
F202.0
sg6
F349.52
sg7
F3689.0
sg8
F14.11765
sg9
L194239L
sg10
F53.33333
sg11
I766
sba(icommon
Rawdatastructure
p144
(dp145
g3
F0.0
sg4
F27.0
sg5
F202.0
sg6
F349.52
sg7
F3689.0
sg8
F14.11765
sg9
L194241L
sg10
F53.33333
sg11
I766
sba(icommon
Rawdatastructure
p146
(dp147
g3
F0.0
sg4
F14.0
sg5
F202.0
sg6
F349.52
sg7
F3689.0
sg8
F13.72549
sg9
L194244L
sg10
F53.33333
sg11
I762
sba(icommon
Rawdatastructure
p148
(dp149
g3
F0.0
sg4
F8.0
sg5
F202.0
sg6
F349.52
sg7
F3689.0
sg8
F14.11765
sg9
L194243L
sg10
F53.33333
sg11
I769
sba(icommon
Rawdatastructure
p150
(dp151
g3
F0.0
sg4
F9.0
sg5
F202.0
sg6
F349.52
sg7
F3689.0
sg8
F14.5098
sg9
L194242L
sg10
F53.33333
sg11
I760
sba(icommon
Rawdatastructure
p152
(dp153
g3
F0.0
sg4
F12.0
sg5
F202.0
sg6
F349.52
sg7
F3689.0
sg8
F13.72549
sg9
L194245L
sg10
F53.33333
sg11
I761
sba(icommon
Rawdatastructure
p154
(dp155
g3
F0.0
sg4
F20.0
sg5
F202.0
sg6
F349.52
sg7
F3689.0
sg8
F48.23529
sg9
L194246L
sg10
F53.33333
sg11
I939
sba(icommon
Rawdatastructure
p156
(dp157
g3
F0.0
sg4
F22.0
sg5
F202.0
sg6
F349.52
sg7
F3689.0
sg8
F13.72549
sg9
L194247L
sg10
F53.33333
sg11
I772
sba(icommon
Rawdatastructure
p158
(dp159
g3
F0.0
sg4
F18.0
sg5
F202.0
sg6
F349.52
sg7
F3689.0
sg8
F14.11765
sg9
L194248L
sg10
F53.33333
sg11
I729
sba(icommon
Rawdatastructure
p160
(dp161
g3
F0.0
sg4
F24.0
sg5
F202.0
sg6
F349.52
sg7
F3689.0
sg8
F59.60784
sg9
L194249L
sg10
F53.33333
sg11
I1055
sba(icommon
Rawdatastructure
p162
(dp163
g3
F0.0
sg4
F22.0
sg5
F202.0
sg6
F349.52
sg7
F3689.0
sg8
F13.33333
sg9
L194250L
sg10
F53.33333
sg11
I753
sba(icommon
Rawdatastructure
p164
(dp165
g3
F0.0
sg4
F17.0
sg5
F202.0
sg6
F349.52
sg7
F3689.0
sg8
F13.33333
sg9
L194251L
sg10
F53.33333
sg11
I742
sba(icommon
Rawdatastructure
p166
(dp167
g3
F0.0
sg4
F16.0
sg5
F202.0
sg6
F349.52
sg7
F3689.0
sg8
F13.72549
sg9
L194252L
sg10
F53.33333
sg11
I751
sba(icommon
Rawdatastructure
p168
(dp169
g3
F0.0
sg4
F14.0
sg5
F202.0
sg6
F349.52
sg7
F3689.0
sg8
F13.33333
sg9
L194253L
sg10
F53.33333
sg11
I739
sba(icommon
Rawdatastructure
p170
(dp171
g3
F0.0
sg4
F15.0
sg5
F202.0
sg6
F349.52
sg7
F3689.0
sg8
F14.11765
sg9
L194254L
sg10
F53.33333
sg11
I860
sba(icommon
Rawdatastructure
p172
(dp173
g3
F0.0
sg4
F15.0
sg5
F202.0
sg6
F349.52
sg7
F3689.0
sg8
F13.33333
sg9
L194255L
sg10
F53.33333
sg11
I745
sba(icommon
Rawdatastructure
p174
(dp175
g3
F0.0
sg4
F25.0
sg5
F202.0
sg6
F349.52
sg7
F3689.0
sg8
F18.82353
sg9
L194256L
sg10
F53.33333
sg11
I870
sba(icommon
Rawdatastructure
p176
(dp177
g3
F0.0
sg4
F23.0
sg5
F202.0
sg6
F349.52
sg7
F3689.0
sg8
F17.2549
sg9
L194257L
sg10
F53.33333
sg11
I740
sba(icommon
Rawdatastructure
p178
(dp179
g3
F0.0
sg4
F15.0
sg5
F202.0
sg6
F349.52
sg7
F3689.0
sg8
F13.72549
sg9
L194258L
sg10
F53.33333
sg11
I753
sba(icommon
Rawdatastructure
p180
(dp181
g3
F0.0
sg4
F25.0
sg5
F202.0
sg6
F349.52
sg7
F3690.0
sg8
F43.52941
sg9
L194259L
sg10
F53.33333
sg11
I1115
sba(icommon
Rawdatastructure
p182
(dp183
g3
F0.0
sg4
F23.0
sg5
F202.0
sg6
F349.52
sg7
F3690.0
sg8
F13.72549
sg9
L194260L
sg10
F53.33333
sg11
I750
sba(icommon
Rawdatastructure
p184
(dp185
g3
F0.0
sg4
F12.0
sg5
F202.0
sg6
F349.52
sg7
F3690.0
sg8
F13.33333
sg9
L194261L
sg10
F53.33333
sg11
I748
sba(icommon
Rawdatastructure
p186
(dp187
g3
F0.0
sg4
F10.0
sg5
F202.0
sg6
F349.52
sg7
F3690.0
sg8
F13.72549
sg9
L194263L
sg10
F53.33333
sg11
I956
sba(icommon
Rawdatastructure
p188
(dp189
g3
F0.0
sg4
F14.0
sg5
F202.0
sg6
F349.52
sg7
F3690.0
sg8
F22.7451
sg9
L194262L
sg10
F53.33333
sg11
I798
sba(icommon
Rawdatastructure
p190
(dp191
g3
F0.0
sg4
F24.0
sg5
F202.0
sg6
F349.52
sg7
F3690.0
sg8
F23.13725
sg9
L194264L
sg10
F53.33333
sg11
I1701
sba(icommon
Rawdatastructure
p192
(dp193
g3
F0.0
sg4
F25.0
sg5
F202.0
sg6
F349.52
sg7
F3690.0
sg8
F29.80392
sg9
L194265L
sg10
F53.33333
sg11
I1076
sba(icommon
Rawdatastructure
p194
(dp195
g3
F0.0
sg4
F24.0
sg5
F202.0
sg6
F349.52
sg7
F3690.0
sg8
F36.07843
sg9
L194267L
sg10
F53.33333
sg11
I1660
sba(icommon
Rawdatastructure
p196
(dp197
g3
F0.0
sg4
F23.0
sg5
F202.0
sg6
F349.52
sg7
F3690.0
sg8
F14.90196
sg9
L194266L
sg10
F53.33333
sg11
I745
sba(icommon
Rawdatastructure
p198
(dp199
g3
F0.0
sg4
F24.0
sg5
F202.0
sg6
F349.52
sg7
F3690.0
sg8
F35.29412
sg9
L194268L
sg10
F53.33333
sg11
I1094
sba(icommon
Rawdatastructure
p200
(dp201
g3
F0.0
sg4
F26.0
sg5
F202.0
sg6
F349.52
sg7
F3690.0
sg8
F19.60784
sg9
L194269L
sg10
F53.33333
sg11
I1222
sba(icommon
Rawdatastructure
p202
(dp203
g3
F0.0
sg4
F24.0
sg5
F202.0
sg6
F349.52
sg7
F3690.0
sg8
F15.68627
sg9
L194270L
sg10
F53.33333
sg11
I1123
sba(icommon
Rawdatastructure
p204
(dp205
g3
F0.0
sg4
F27.0
sg5
F202.0
sg6
F349.52
sg7
F3690.0
sg8
F53.72549
sg9
L194271L
sg10
F53.33333
sg11
I1191
sba(icommon
Rawdatastructure
p206
(dp207
g3
F0.0
sg4
F30.0
sg5
F202.0
sg6
F349.52
sg7
F3690.0
sg8
F8.62745
sg9
L194272L
sg10
F53.33333
sg11
I1409
sba(icommon
Rawdatastructure
p208
(dp209
g3
F0.0
sg4
F24.0
sg5
F202.0
sg6
F349.52
sg7
F3690.0
sg8
F51.37255
sg9
L194273L
sg10
F53.33333
sg11
I1085
sba(icommon
Rawdatastructure
p210
(dp211
g3
F0.0
sg4
F34.0
sg5
F202.0
sg6
F349.52
sg7
F3690.0
sg8
F28.23529
sg9
L194274L
sg10
F53.33333
sg11
I1563
sba(icommon
Rawdatastructure
p212
(dp213
g3
F0.0
sg4
F39.0
sg5
F202.0
sg6
F349.52
sg7
F3690.0
sg8
F16.47059
sg9
L194275L
sg10
F53.33333
sg11
I1792
sba(icommon
Rawdatastructure
p214
(dp215
g3
F0.0
sg4
F16.0
sg5
F202.0
sg6
F349.52
sg7
F3690.0
sg8
F13.33333
sg9
L194276L
sg10
F53.33333
sg11
I764
sba(icommon
Rawdatastructure
p216
(dp217
g3
F0.0
sg4
F17.0
sg5
F202.0
sg6
F349.52
sg7
F3690.0
sg8
F14.11765
sg9
L194277L
sg10
F53.33333
sg11
I778
sba(icommon
Rawdatastructure
p218
(dp219
g3
F0.0
sg4
F19.0
sg5
F202.0
sg6
F349.52
sg7
F3690.0
sg8
F13.72549
sg9
L194278L
sg10
F53.33333
sg11
I779
sba(icommon
Rawdatastructure
p220
(dp221
g3
F0.0
sg4
F23.0
sg5
F202.0
sg6
F349.52
sg7
F3690.0
sg8
F44.31373
sg9
L194279L
sg10
F53.33333
sg11
I1052
sba(icommon
Rawdatastructure
p222
(dp223
g3
F0.0
sg4
F32.0
sg5
F202.0
sg6
F349.52
sg7
F3691.0
sg8
F18.03922
sg9
L194280L
sg10
F53.33333
sg11
I1498
sba(icommon
Rawdatastructure
p224
(dp225
g3
F0.0
sg4
F33.0
sg5
F202.0
sg6
F349.52
sg7
F3691.0
sg8
F9.41176
sg9
L194281L
sg10
F53.33333
sg11
I1492
sba(icommon
Rawdatastructure
p226
(dp227
g3
F0.0
sg4
F32.0
sg5
F202.0
sg6
F349.52
sg7
F3691.0
sg8
F14.11765
sg9
L194282L
sg10
F53.33333
sg11
I1068
sba(icommon
Rawdatastructure
p228
(dp229
g3
F0.0
sg4
F41.0
sg5
F202.0
sg6
F349.52
sg7
F3691.0
sg8
F7.05882
sg9
L194285L
sg10
F53.33333
sg11
I1374
sba(icommon
Rawdatastructure
p230
(dp231
g3
F0.0
sg4
F47.0
sg5
F202.0
sg6
F349.52
sg7
F3691.0
sg8
F13.72549
sg9
L194284L
sg10
F53.33333
sg11
I760
sba(icommon
Rawdatastructure
p232
(dp233
g3
F0.0
sg4
F39.0
sg5
F202.0
sg6
F349.52
sg7
F3691.0
sg8
F20.39216
sg9
L194283L
sg10
F53.33333
sg11
I1277
sba(icommon
Rawdatastructure
p234
(dp235
g3
F0.0
sg4
F20.0
sg5
F202.0
sg6
F349.52
sg7
F3691.0
sg8
F13.72549
sg9
L194286L
sg10
F53.33333
sg11
I786
sba(icommon
Rawdatastructure
p236
(dp237
g3
F0.0
sg4
F27.0
sg5
F202.0
sg6
F349.52
sg7
F3691.0
sg8
F14.90196
sg9
L194287L
sg10
F53.33333
sg11
I1267
sba(icommon
Rawdatastructure
p238
(dp239
g3
F0.0
sg4
F29.0
sg5
F202.0
sg6
F349.52
sg7
F3691.0
sg8
F58.82353
sg9
L194288L
sg10
F53.33333
sg11
I1284
sba(icommon
Rawdatastructure
p240
(dp241
g3
F0.0
sg4
F30.0
sg5
F202.0
sg6
F349.52
sg7
F3691.0
sg8
F50.19608
sg9
L194289L
sg10
F53.33333
sg11
I1377
sba(icommon
Rawdatastructure
p242
(dp243
g3
F0.0
sg4
F33.0
sg5
F202.0
sg6
F349.52
sg7
F3691.0
sg8
F18.43137
sg9
L194290L
sg10
F53.33333
sg11
I1539
sba(icommon
Rawdatastructure
p244
(dp245
g3
F0.0
sg4
F34.0
sg5
F202.0
sg6
F349.52
sg7
F3691.0
sg8
F12.54902
sg9
L194291L
sg10
F53.33333
sg11
I1589
sba(icommon
Rawdatastructure
p246
(dp247
g3
F0.0
sg4
F38.0
sg5
F202.0
sg6
F349.52
sg7
F3691.0
sg8
F9.01961
sg9
L194292L
sg10
F53.33333
sg11
I1780
sba(icommon
Rawdatastructure
p248
(dp249
g3
F0.0
sg4
F38.0
sg5
F202.0
sg6
F349.52
sg7
F3691.0
sg8
F28.23529
sg9
L194293L
sg10
F53.33333
sg11
I1754
sba(icommon
Rawdatastructure
p250
(dp251
g3
F0.0
sg4
F46.0
sg5
F202.0
sg6
F349.52
sg7
F3692.0
sg8
F20.78431
sg9
L194294L
sg10
F53.33333
sg11
I2085
sba(icommon
Rawdatastructure
p252
(dp253
g3
F0.0
sg4
F50.0
sg5
F202.0
sg6
F349.52
sg7
F3692.0
sg8
F9.41176
sg9
L194295L
sg10
F53.33333
sg11
I2291
sba(icommon
Rawdatastructure
p254
(dp255
g3
F0.0
sg4
F56.0
sg5
F202.0
sg6
F349.52
sg7
F3692.0
sg8
F9.41176
sg9
L194296L
sg10
F53.33333
sg11
I1841
sba(icommon
Rawdatastructure
p256
(dp257
g3
F0.0
sg4
F39.0
sg5
F202.0
sg6
F349.52
sg7
F3692.0
sg8
F13.72549
sg9
L194297L
sg10
F53.33333
sg11
I773
sba(icommon
Rawdatastructure
p258
(dp259
g3
F0.0
sg4
F25.0
sg5
F202.0
sg6
F349.52
sg7
F3692.0
sg8
F13.72549
sg9
L194298L
sg10
F53.33333
sg11
I756
sba(icommon
Rawdatastructure
p260
(dp261
g3
F0.0
sg4
F18.0
sg5
F202.0
sg6
F349.52
sg7
F3692.0
sg8
F36.07843
sg9
L194299L
sg10
F53.33333
sg11
I816
sba(icommon
Rawdatastructure
p262
(dp263
g3
F0.0
sg4
F41.0
sg5
F202.0
sg6
F349.52
sg7
F3692.0
sg8
F66.66667
sg9
L194300L
sg10
F53.33333
sg11
I1892
sba(icommon
Rawdatastructure
p264
(dp265
g3
F0.0
sg4
F35.0
sg5
F202.0
sg6
F349.52
sg7
F3692.0
sg8
F12.54902
sg9
L194301L
sg10
F53.33333
sg11
I1175
sba(icommon
Rawdatastructure
p266
(dp267
g3
F0.0
sg4
F34.0
sg5
F202.0
sg6
F349.52
sg7
F3692.0
sg8
F10.58824
sg9
L194302L
sg10
F53.33333
sg11
I976
sba(icommon
Rawdatastructure
p268
(dp269
g3
F0.0
sg4
F6.0
sg5
F202.0
sg6
F349.52
sg7
F3692.0
sg8
F13.72549
sg9
L194303L
sg10
F53.33333
sg11
I770
sba(icommon
Rawdatastructure
p270
(dp271
g3
F0.0
sg4
F21.0
sg5
F202.0
sg6
F349.52
sg7
F3692.0
sg8
F17.64706
sg9
L194304L
sg10
F53.33333
sg11
I1073
sba(icommon
Rawdatastructure
p272
(dp273
g3
F0.0
sg4
F9.0
sg5
F202.0
sg6
F349.52
sg7
F3692.0
sg8
F24.70588
sg9
L194305L
sg10
F53.33333
sg11
I753
sba(icommon
Rawdatastructure
p274
(dp275
g3
F0.0
sg4
F26.0
sg5
F202.0
sg6
F349.52
sg7
F3692.0
sg8
F52.54902
sg9
L194306L
sg10
F53.33333
sg11
I1861
sba(icommon
Rawdatastructure
p276
(dp277
g3
F0.0
sg4
F38.0
sg5
F202.0
sg6
F349.52
sg7
F3692.0
sg8
F22.35294
sg9
L194307L
sg10
F53.33333
sg11
I1686
sba(icommon
Rawdatastructure
p278
(dp279
g3
F0.0
sg4
F58.0
sg5
F202.0
sg6
F349.52
sg7
F3692.0
sg8
F38.03922
sg9
L194308L
sg10
F53.33333
sg11
I1883
sba(icommon
Rawdatastructure
p280
(dp281
g3
F0.0
sg4
F27.0
sg5
F202.0
sg6
F349.52
sg7
F3693.0
sg8
F13.72549
sg9
L194311L
sg10
F53.33333
sg11
I1064
sba(icommon
Rawdatastructure
p282
(dp283
g3
F0.0
sg4
F44.0
sg5
F202.0
sg6
F349.52
sg7
F3693.0
sg8
F14.11765
sg9
L194310L
sg10
F53.33333
sg11
I773
sba(icommon
Rawdatastructure
p284
(dp285
g3
F0.0
sg4
F61.0
sg5
F202.0
sg6
F349.52
sg7
F3693.0
sg8
F13.72549
sg9
L194309L
sg10
F53.33333
sg11
I771
sba(icommon
Rawdatastructure
p286
(dp287
g3
F0.0
sg4
F25.0
sg5
F202.0
sg6
F349.52
sg7
F3693.0
sg8
F15.68627
sg9
L194312L
sg10
F53.33333
sg11
I1104
sba(icommon
Rawdatastructure
p288
(dp289
g3
F0.0
sg4
F0.0
sg5
F202.0
sg6
F349.52
sg7
F3693.0
sg8
F13.72549
sg9
L194313L
sg10
F53.33333
sg11
I764
sba(icommon
Rawdatastructure
p290
(dp291
g3
F0.0
sg4
F0.0
sg5
F202.0
sg6
F349.52
sg7
F3693.0
sg8
F13.33333
sg9
L194314L
sg10
F53.33333
sg11
I764
sba(icommon
Rawdatastructure
p292
(dp293
g3
F0.0
sg4
F0.0
sg5
F202.0
sg6
F349.52
sg7
F3693.0
sg8
F13.33333
sg9
L194315L
sg10
F53.33333
sg11
I776
sba(icommon
Rawdatastructure
p294
(dp295
g3
F0.0
sg4
F22.0
sg5
F202.0
sg6
F349.52
sg7
F3693.0
sg8
F33.72549
sg9
L194316L
sg10
F53.33333
sg11
I1030
sba(icommon
Rawdatastructure
p296
(dp297
g3
F0.0
sg4
F27.0
sg5
F202.0
sg6
F349.52
sg7
F3693.0
sg8
F14.90196
sg9
L194317L
sg10
F53.33333
sg11
I1222
sba(icommon
Rawdatastructure
p298
(dp299
g3
F0.0
sg4
F29.0
sg5
F202.0
sg6
F349.52
sg7
F3693.0
sg8
F10.19608
sg9
L194318L
sg10
F53.33333
sg11
I1337
sba(icommon
Rawdatastructure
p300
(dp301
g3
F0.0
sg4
F18.0
sg5
F202.0
sg6
F349.52
sg7
F3693.0
sg8
F13.72549
sg9
L194319L
sg10
F53.33333
sg11
I767
sba(icommon
Rawdatastructure
p302
(dp303
g3
F0.0
sg4
F24.0
sg5
F202.0
sg6
F349.52
sg7
F3693.0
sg8
F14.11765
sg9
L194320L
sg10
F53.33333
sg11
I1105
sba(icommon
Rawdatastructure
p304
(dp305
g3
F0.0
sg4
F27.0
sg5
F202.0
sg6
F349.52
sg7
F3693.0
sg8
F33.72549
sg9
L194321L
sg10
F53.33333
sg11
I844
sba(icommon
Rawdatastructure
p306
(dp307
g3
F0.0
sg4
F3.0
sg5
F202.0
sg6
F349.52
sg7
F3693.0
sg8
F13.72549
sg9
L194322L
sg10
F53.33333
sg11
I762
sba(icommon
Rawdatastructure
p308
(dp309
g3
F0.0
sg4
F4.0
sg5
F202.0
sg6
F349.52
sg7
F3693.0
sg8
F12.15686
sg9
L194323L
sg10
F53.33333
sg11
I819
sba(icommon
Rawdatastructure
p310
(dp311
g3
F0.0
sg4
F4.0
sg5
F202.0
sg6
F349.52
sg7
F3693.0
sg8
F15.29412
sg9
L194324L
sg10
F53.33333
sg11
I1062
sba(icommon
Rawdatastructure
p312
(dp313
g3
F0.0
sg4
F1.0
sg5
F202.0
sg6
F349.52
sg7
F3693.0
sg8
F10.19608
sg9
L194325L
sg10
F53.33333
sg11
I968
sba(icommon
Rawdatastructure
p314
(dp315
g3
F0.0
sg4
F0.0
sg5
F202.0
sg6
F349.52
sg7
F3693.0
sg8
F13.33333
sg9
L194326L
sg10
F53.33333
sg11
I771
sba(icommon
Rawdatastructure
p316
(dp317
g3
F0.0
sg4
F0.0
sg5
F202.0
sg6
F349.52
sg7
F3693.0
sg8
F31.37255
sg9
L194327L
sg10
F53.33333
sg11
I773
sba(icommon
Rawdatastructure
p318
(dp319
g3
F0.0
sg4
F0.0
sg5
F202.0
sg6
F349.52
sg7
F3693.0
sg8
F13.72549
sg9
L194328L
sg10
F53.33333
sg11
I774
sba(icommon
Rawdatastructure
p320
(dp321
g3
F0.0
sg4
F1.0
sg5
F202.0
sg6
F349.52
sg7
F3693.0
sg8
F25.09804
sg9
L194329L
sg10
F53.33333
sg11
I771
sba(icommon
Rawdatastructure
p322
(dp323
g3
F0.0
sg4
F18.0
sg5
F202.0
sg6
F349.52
sg7
F3693.0
sg8
F10.98039
sg9
L194330L
sg10
F53.33333
sg11
I1753
sba(icommon
Rawdatastructure
p324
(dp325
g3
F0.0
sg4
F24.0
sg5
F202.0
sg6
F349.52
sg7
F3693.0
sg8
F13.72549
sg9
L194331L
sg10
F53.33333
sg11
I770
sba(icommon
Rawdatastructure
p326
(dp327
g3
F0.0
sg4
F29.0
sg5
F202.0
sg6
F349.52
sg7
F3693.0
sg8
F54.11765
sg9
L194332L
sg10
F53.33333
sg11
I1239
sba(icommon
Rawdatastructure
p328
(dp329
g3
F0.0
sg4
F38.0
sg5
F202.0
sg6
F349.52
sg7
F3693.0
sg8
F27.45098
sg9
L194333L
sg10
F53.33333
sg11
I1221
sba(icommon
Rawdatastructure
p330
(dp331
g3
F0.0
sg4
F37.0
sg5
F202.0
sg6
F349.52
sg7
F3693.0
sg8
F13.33333
sg9
L194334L
sg10
F53.33333
sg11
I1226
sba(icommon
Rawdatastructure
p332
(dp333
g3
F0.0
sg4
F42.0
sg5
F202.0
sg6
F349.52
sg7
F3693.0
sg8
F41.56863
sg9
L194335L
sg10
F53.33333
sg11
I1373
sba(icommon
Rawdatastructure
p334
(dp335
g3
F0.0
sg4
F48.0
sg5
F202.0
sg6
F349.52
sg7
F3694.0
sg8
F7.45098
sg9
L194336L
sg10
F53.33333
sg11
I1580
sba(icommon
Rawdatastructure
p336
(dp337
g3
F0.0
sg4
F42.0
sg5
F202.0
sg6
F349.52
sg7
F3695.0
sg8
F13.33333
sg9
L194337L
sg10
F53.33333
sg11
I777
sba(icommon
Rawdatastructure
p338
(dp339
g3
F0.0
sg4
F14.0
sg5
F202.0
sg6
F349.52
sg7
F3695.0
sg8
F14.11765
sg9
L194338L
sg10
F53.33333
sg11
I767
sba(icommon
Rawdatastructure
p340
(dp341
g3
F0.0
sg4
F0.0
sg5
F202.0
sg6
F349.52
sg7
F3695.0
sg8
F13.72549
sg9
L194339L
sg10
F53.33333
sg11
I773
sba(icommon
Rawdatastructure
p342
(dp343
g3
F0.0
sg4
F0.0
sg5
F202.0
sg6
F349.52
sg7
F3695.0
sg8
F13.72549
sg9
L194340L
sg10
F53.33333
sg11
I764
sba(icommon
Rawdatastructure
p344
(dp345
g3
F0.0
sg4
F0.0
sg5
F202.0
sg6
F349.52
sg7
F3695.0
sg8
F13.72549
sg9
L194341L
sg10
F53.33333
sg11
I777
sba(icommon
Rawdatastructure
p346
(dp347
g3
F0.0
sg4
F0.0
sg5
F202.0
sg6
F349.52
sg7
F3695.0
sg8
F13.72549
sg9
L194342L
sg10
F53.33333
sg11
I762
sba(icommon
Rawdatastructure
p348
(dp349
g3
F0.0
sg4
F0.0
sg5
F202.0
sg6
F349.52
sg7
F3695.0
sg8
F13.72549
sg9
L194343L
sg10
F53.33333
sg11
I770
sba(icommon
Rawdatastructure
p350
(dp351
g3
F0.0
sg4
F14.0
sg5
F202.0
sg6
F349.52
sg7
F3695.0
sg8
F36.47059
sg9
L194344L
sg10
F53.33333
sg11
I1808
sba(icommon
Rawdatastructure
p352
(dp353
g3
F0.0
sg4
F23.0
sg5
F202.0
sg6
F349.52
sg7
F3695.0
sg8
F12.94118
sg9
L194345L
sg10
F53.33333
sg11
I1109
sba(icommon
Rawdatastructure
p354
(dp355
g3
F0.0
sg4
F5.0
sg5
F202.0
sg6
F349.52
sg7
F3695.0
sg8
F13.33333
sg9
L194346L
sg10
F53.33333
sg11
I762
sba(icommon
Rawdatastructure
p356
(dp357
g3
F0.0
sg4
F0.0
sg5
F202.0
sg6
F349.52
sg7
F3695.0
sg8
F13.72549
sg9
L194347L
sg10
F53.33333
sg11
I773
sba(icommon
Rawdatastructure
p358
(dp359
g3
F0.0
sg4
F0.0
sg5
F202.0
sg6
F349.52
sg7
F3695.0
sg8
F13.72549
sg9
L194348L
sg10
F53.33333
sg11
I758
sba(icommon
Rawdatastructure
p360
(dp361
g3
F0.0
sg4
F0.0
sg5
F202.0
sg6
F349.52
sg7
F3695.0
sg8
F13.72549
sg9
L194349L
sg10
F53.33333
sg11
I774
sba(icommon
Rawdatastructure
p362
(dp363
g3
F0.0
sg4
F0.0
sg5
F202.0
sg6
F349.52
sg7
F3695.0
sg8
F13.72549
sg9
L194350L
sg10
F53.33333
sg11
I774
sba(icommon
Rawdatastructure
p364
(dp365
g3
F0.0
sg4
F0.0
sg5
F202.0
sg6
F349.52
sg7
F3695.0
sg8
F13.72549
sg9
L194351L
sg10
F53.33333
sg11
I769
sba(icommon
Rawdatastructure
p366
(dp367
g3
F0.0
sg4
F0.0
sg5
F202.0
sg6
F349.52
sg7
F3695.0
sg8
F13.72549
sg9
L194352L
sg10
F53.33333
sg11
I768
sba(icommon
Rawdatastructure
p368
(dp369
g3
F0.0
sg4
F0.0
sg5
F202.0
sg6
F349.52
sg7
F3695.0
sg8
F13.72549
sg9
L194353L
sg10
F53.33333
sg11
I773
sba(icommon
Rawdatastructure
p370
(dp371
g3
F0.0
sg4
F15.0
sg5
F202.0
sg6
F349.52
sg7
F3695.0
sg8
F20.39216
sg9
L194354L
sg10
F53.33333
sg11
I1005
sba(icommon
Rawdatastructure
p372
(dp373
g3
F0.0
sg4
F14.0
sg5
F202.0
sg6
F349.52
sg7
F3695.0
sg8
F13.72549
sg9
L194355L
sg10
F53.33333
sg11
I768
sba(icommon
Rawdatastructure
p374
(dp375
g3
F0.0
sg4
F7.0
sg5
F202.0
sg6
F349.52
sg7
F3695.0
sg8
F14.5098
sg9
L194356L
sg10
F53.33333
sg11
I761
sba(icommon
Rawdatastructure
p376
(dp377
g3
F0.0
sg4
F0.0
sg5
F202.0
sg6
F349.52
sg7
F3695.0
sg8
F14.11765
sg9
L194357L
sg10
F53.33333
sg11
I765
sba(icommon
Rawdatastructure
p378
(dp379
g3
F0.0
sg4
F21.0
sg5
F202.0
sg6
F349.52
sg7
F3695.0
sg8
F11.37255
sg9
L194358L
sg10
F53.33333
sg11
I1360
sba(icommon
Rawdatastructure
p380
(dp381
g3
F0.0
sg4
F38.0
sg5
F202.0
sg6
F349.52
sg7
F3695.0
sg8
F9.80392
sg9
L194359L
sg10
F53.33333
sg11
I1751
sba(icommon
Rawdatastructure
p382
(dp383
g3
F0.0
sg4
F22.0
sg5
F202.0
sg6
F349.52
sg7
F3695.0
sg8
F13.72549
sg9
L194360L
sg10
F53.33333
sg11
I769
sba(icommon
Rawdatastructure
p384
(dp385
g3
F0.0
sg4
F33.0
sg5
F202.0
sg6
F349.52
sg7
F3695.0
sg8
F57.64706
sg9
L194361L
sg10
F53.33333
sg11
I1514
sba(icommon
Rawdatastructure
p386
(dp387
g3
F0.0
sg4
F28.0
sg5
F202.0
sg6
F349.52
sg7
F3695.0
sg8
F13.72549
sg9
L194362L
sg10
F53.33333
sg11
I786
sba(icommon
Rawdatastructure
p388
(dp389
g3
F0.0
sg4
F14.0
sg5
F202.0
sg6
F349.52
sg7
F3695.0
sg8
F15.29412
sg9
L194363L
sg10
F53.33333
sg11
I796
sba(icommon
Rawdatastructure
p390
(dp391
g3
F0.0
sg4
F19.0
sg5
F202.0
sg6
F349.52
sg7
F3695.0
sg8
F14.5098
sg9
L194364L
sg10
F53.33333
sg11
I946
sba(icommon
Rawdatastructure
p392
(dp393
g3
F0.0
sg4
F27.0
sg5
F202.0
sg6
F349.52
sg7
F3695.0
sg8
F13.72549
sg9
L194365L
sg10
F53.33333
sg11
I796
sba(icommon
Rawdatastructure
p394
(dp395
g3
F0.0
sg4
F19.0
sg5
F202.0
sg6
F349.52
sg7
F3695.0
sg8
F14.11765
sg9
L194366L
sg10
F53.33333
sg11
I775
sba(icommon
Rawdatastructure
p396
(dp397
g3
F0.0
sg4
F14.0
sg5
F202.0
sg6
F349.52
sg7
F3695.0
sg8
F15.68627
sg9
L194367L
sg10
F53.33333
sg11
I1290
sba(icommon
Rawdatastructure
p398
(dp399
g3
F0.0
sg4
F19.0
sg5
F202.0
sg6
F349.52
sg7
F3695.0
sg8
F27.05882
sg9
L194368L
sg10
F53.33333
sg11
I1329
sba(icommon
Rawdatastructure
p400
(dp401
g3
F0.0
sg4
F34.0
sg5
F202.0
sg6
F349.52
sg7
F3695.0
sg8
F32.15686
sg9
L194369L
sg10
F53.33333
sg11
I1145
sba(icommon
Rawdatastructure
p402
(dp403
g3
F0.0
sg4
F40.0
sg5
F202.0
sg6
F349.52
sg7
F3695.0
sg8
F20.78431
sg9
L194370L
sg10
F53.33333
sg11
I1321
sba(icommon
Rawdatastructure
p404
(dp405
g3
F0.0
sg4
F45.0
sg5
F202.0
sg6
F349.52
sg7
F3695.0
sg8
F13.33333
sg9
L194371L
sg10
F53.33333
sg11
I1495
sba(icommon
Rawdatastructure
p406
(dp407
g3
F0.0
sg4
F37.0
sg5
F202.0
sg6
F349.52
sg7
F3696.0
sg8
F14.11765
sg9
L194372L
sg10
F53.33333
sg11
I767
sba(icommon
Rawdatastructure
p408
(dp409
g3
F0.0
sg4
F18.0
sg5
F202.0
sg6
F349.52
sg7
F3696.0
sg8
F13.72549
sg9
L194373L
sg10
F53.33333
sg11
I766
sba(icommon
Rawdatastructure
p410
(dp411
g3
F0.0
sg4
F4.0
sg5
F202.0
sg6
F349.52
sg7
F3696.0
sg8
F13.72549
sg9
L194374L
sg10
F53.33333
sg11
I770
sba(icommon
Rawdatastructure
p412
(dp413
g3
F0.0
sg4
F19.0
sg5
F202.0
sg6
F349.52
sg7
F3696.0
sg8
F23.13725
sg9
L194375L
sg10
F53.33333
sg11
I1113
sba(icommon
Rawdatastructure
p414
(dp415
g3
F0.0
sg4
F24.0
sg5
F202.0
sg6
F349.52
sg7
F3696.0
sg8
F14.11765
sg9
L194376L
sg10
F53.33333
sg11
I780
sba(icommon
Rawdatastructure
p416
(dp417
g3
F0.0
sg4
F23.0
sg5
F202.0
sg6
F349.52
sg7
F3696.0
sg8
F13.72549
sg9
L194377L
sg10
F53.33333
sg11
I1065
sba(icommon
Rawdatastructure
p418
(dp419
g3
F0.0
sg4
F19.0
sg5
F202.0
sg6
F349.52
sg7
F3696.0
sg8
F14.11765
sg9
L194378L
sg10
F53.33333
sg11
I892
sba(icommon
Rawdatastructure
p420
(dp421
g3
F0.0
sg4
F20.0
sg5
F202.0
sg6
F349.52
sg7
F3696.0
sg8
F43.13725
sg9
L194379L
sg10
F53.33333
sg11
I1278
sba(icommon
Rawdatastructure
p422
(dp423
g3
F0.0
sg4
F26.0
sg5
F202.0
sg6
F349.52
sg7
F3696.0
sg8
F18.03922
sg9
L194380L
sg10
F53.33333
sg11
I1197
sba(icommon
Rawdatastructure
p424
(dp425
g3
F0.0
sg4
F25.0
sg5
F202.0
sg6
F349.52
sg7
F3696.0
sg8
F33.33333
sg9
L194381L
sg10
F53.33333
sg11
I1145
sba(icommon
Rawdatastructure
p426
(dp427
g3
F0.0
sg4
F22.0
sg5
F202.0
sg6
F349.52
sg7
F3696.0
sg8
F20.39216
sg9
L194382L
sg10
F53.33333
sg11
I1028
sba(icommon
Rawdatastructure
p428
(dp429
g3
F0.0
sg4
F2.0
sg5
F202.0
sg6
F349.52
sg7
F3696.0
sg8
F13.33333
sg9
L194384L
sg10
F53.33333
sg11
I759
sba(icommon
Rawdatastructure
p430
(dp431
g3
F0.0
sg4
F14.0
sg5
F202.0
sg6
F349.52
sg7
F3696.0
sg8
F14.11765
sg9
L194383L
sg10
F53.33333
sg11
I748
sba(icommon
Rawdatastructure
p432
(dp433
g3
F0.0
sg4
F12.0
sg5
F202.0
sg6
F349.52
sg7
F3696.0
sg8
F14.5098
sg9
L194386L
sg10
F53.33333
sg11
I757
sba(icommon
Rawdatastructure
p434
(dp435
g3
F0.0
sg4
F16.0
sg5
F202.0
sg6
F349.52
sg7
F3696.0
sg8
F46.27451
sg9
L194385L
sg10
F53.33333
sg11
I1112
sba(icommon
Rawdatastructure
p436
(dp437
g3
F0.0
sg4
F18.0
sg5
F202.0
sg6
F349.52
sg7
F3696.0
sg8
F13.72549
sg9
L194387L
sg10
F53.33333
sg11
I767
sba(icommon
Rawdatastructure
p438
(dp439
g3
F0.0
sg4
F19.0
sg5
F202.0
sg6
F349.52
sg7
F3696.0
sg8
F18.82353
sg9
L194388L
sg10
F53.33333
sg11
I897
sba(icommon
Rawdatastructure
p440
(dp441
g3
F0.0
sg4
F7.0
sg5
F202.0
sg6
F349.52
sg7
F3696.0
sg8
F13.72549
sg9
L194389L
sg10
F53.33333
sg11
I754
sba(icommon
Rawdatastructure
p442
(dp443
g3
F0.0
sg4
F8.0
sg5
F202.0
sg6
F349.52
sg7
F3696.0
sg8
F16.07843
sg9
L194390L
sg10
F53.33333
sg11
I957
sba(icommon
Rawdatastructure
p444
(dp445
g3
F0.0
sg4
F7.0
sg5
F202.0
sg6
F349.52
sg7
F3696.0
sg8
F13.33333
sg9
L194391L
sg10
F53.33333
sg11
I750
sba(icommon
Rawdatastructure
p446
(dp447
g3
F0.0
sg4
F0.0
sg5
F202.0
sg6
F349.52
sg7
F3696.0
sg8
F13.72549
sg9
L194392L
sg10
F53.33333
sg11
I754
sba(icommon
Rawdatastructure
p448
(dp449
g3
F0.0
sg4
F3.0
sg5
F202.0
sg6
F349.52
sg7
F3696.0
sg8
F16.47059
sg9
L194402L
sg10
F53.33333
sg11
I848
sba(icommon
Rawdatastructure
p450
(dp451
g3
F0.0
sg4
F7.0
sg5
F202.0
sg6
F349.52
sg7
F3696.0
sg8
F27.45098
sg9
L194403L
sg10
F53.33333
sg11
I1055
sba(icommon
Rawdatastructure
p452
(dp453
g3
F0.0
sg4
F11.0
sg5
F202.0
sg6
F349.52
sg7
F3696.0
sg8
F15.68627
sg9
L194404L
sg10
F53.33333
sg11
I726
sba(icommon
Rawdatastructure
p454
(dp455
g3
F0.0
sg4
F18.0
sg5
F202.0
sg6
F349.52
sg7
F3696.0
sg8
F30.98039
sg9
L194405L
sg10
F53.33333
sg11
I1033
sba(icommon
Rawdatastructure
p456
(dp457
g3
F0.0
sg4
F16.0
sg5
F202.0
sg6
F349.52
sg7
F3696.0
sg8
F44.31373
sg9
L194406L
sg10
F53.33333
sg11
I774
sba(icommon
Rawdatastructure
p458
(dp459
g3
F0.0
sg4
F11.0
sg5
F202.0
sg6
F349.52
sg7
F3696.0
sg8
F14.90196
sg9
L194407L
sg10
F53.33333
sg11
I780
sba(icommon
Rawdatastructure
p460
(dp461
g3
F0.0
sg4
F8.0
sg5
F202.0
sg6
F349.52
sg7
F3696.0
sg8
F14.11765
sg9
L194408L
sg10
F53.33333
sg11
I743
sba(icommon
Rawdatastructure
p462
(dp463
g3
F0.0
sg4
F3.0
sg5
F202.0
sg6
F349.52
sg7
F3696.0
sg8
F18.43137
sg9
L194409L
sg10
F53.33333
sg11
I797
sba(icommon
Rawdatastructure
p464
(dp465
g3
F0.0
sg4
F1.0
sg5
F202.0
sg6
F349.52
sg7
F3696.0
sg8
F15.29412
sg9
L194410L
sg10
F53.33333
sg11
I761
sba(icommon
Rawdatastructure
p466
(dp467
g3
F0.0
sg4
F0.0
sg5
F202.0
sg6
F349.52
sg7
F3696.0
sg8
F14.90196
sg9
L194411L
sg10
F53.33333
sg11
I776
sba(icommon
Rawdatastructure
p468
(dp469
g3
F0.0
sg4
F0.0
sg5
F202.0
sg6
F349.52
sg7
F3696.0
sg8
F15.68627
sg9
L194413L
sg10
F53.33333
sg11
I767
sba(icommon
Rawdatastructure
p470
(dp471
g3
F0.0
sg4
F0.0
sg5
F202.0
sg6
F349.52
sg7
F3696.0
sg8
F15.29412
sg9
L194412L
sg10
F53.33333
sg11
I756
sba(icommon
Rawdatastructure
p472
(dp473
g3
F0.0
sg4
F0.0
sg5
F34952.0
sg6
F349.52
sg7
F34952.0
sg8
F14.90196
sg9
L194414L
sg10
F53.33333
sg11
I768
sba.